Module: E:\DEMO\FX\mixer.cpp
GROUP: 'DGROUP' CONST,CONST2,_DATA,_BSS

Segment: _TEXT PARA USE32 000021D0 bytes

// Mixer control v2.3 for the F/X Player
// (c) 1996-98 by Apollo of STIGMA

//#define cdebug

#include <stdio.h>
#include <dos.h>
#include <string.h>
#include <stdlib.h>
#include <conio.h>

#include "fx.h"

#include "irq.h"
//#include "dma.h"

//#include "device.h"
//#include "dev_sb.h"

//#include "format.h"
#include "dat_calc.h"
//#include "dat_wav.h"
//#include "dat_s3m.h"

//#include "convert.h"
#include "mixer.h"
#include "amptable.h"


#define MAXCHANNELS      256          // How many channels can be managed
#define MC               MAXCHANNELS  // only the shortcut

// *** global mixer variables ***

unsigned long  ChannelSeperation = 256;    // seperation of channels
                                           // 256 = max, 0 = mono
unsigned long  GlobalVolume = 256;         // global volume from 0 to 256
unsigned long  MasterVolume = 0;           // master volume, is realtive
                                           // volume of every channel to mix

// *** global mixerchannel variables ***

unsigned long  ChannelUsed = 0, ChannelLast = 0;

unsigned char  ChannelActiv[MC];          // 0 = quiet, 1 = activ
unsigned char  ChannelFlag[MC];           // 0 = available, 1 = paused

unsigned long  ChannelSampleNr[MC];       // Nr. of Sample playing (not really needed)
unsigned long  ChannelVolume[MC];         // from 0 (quiet) to 256 (loud)
unsigned long  ChannelPanning[MC];        // from 0 (left) to 256 (right), 128 is middle, +32768 = surround
unsigned char  ChannelSampleBits[MC];     // 8 or 16 bit
unsigned char  ChannelSampleMode[MC];     // 0 = mono, 1 = stereo sample
unsigned long  ChannelSampleAddress[MC];  // start address of current sample INCLUSIVE
unsigned long  ChannelSampleLength[MC];   // position length of sample EXCLUSIVE
unsigned char  ChannelLoopMode[MC];       // 0 = no, 1 = forward, 2 = reverse, 3 = pingpong
unsigned long  ChannelLoopBegin[MC];      // position where loop starts INCLUSIVE
unsigned long  ChannelLoopEnd[MC];        // position where loop ends EXCLUSIVE
unsigned long  ChannelSamplePosition[MC]; // actuall position in sample
unsigned long  ChannelSampleFraction[MC]; // actuall fraction of sample position
unsigned long  ChannelSampleFrequence[MC];// actuall frequence to play sample
  signed long  ChannelLastValueLeft[MC];  // last left-value written into mixerbuffer
  signed long  ChannelLastValueRight[MC]; // last right-value written into mixerbuffer

unsigned long  ChannelVolumeLeft[MC];     // from 0 to 256
unsigned long  ChannelVolumeRight[MC];    // from 0 to 256
  signed long  DeltaSamplePosition[MC];   // delta to add on position
  signed long  DeltaSampleFraction[MC];   // delta to add on fraction

unsigned long  NextSamplePosition[MC];    // sample position after mixing
unsigned long  NextSampleFraction[MC];    // sample fraction after mixing

unsigned char  NextChannelActiv[MC];      // activ-flag after mixing

// NOTE: ALL positions given here are NOT bytes but they ARE in samples !!!


// **************************************************************************

void (*MixRealChannel) ( unsigned long channel, unsigned long counter, unsigned long MixPosition );
void (*MixRealIChannel) ( unsigned long channel, unsigned long counter, unsigned long MixPosition );
void (*MixRealICarry) ( unsigned long channel, unsigned long Position1, unsigned long Position2, unsigned long Fraction, unsigned long MixPosition);


// *** some Volumetable variables ***

extern char *Voltable8;
extern char *MasterVolumeTable;


// *** Mixer initalizations ***

void writeMixer( )
0000                          void near writeMixer():
0000    52                        push      edx

{
  printf("Running %2ibit Mixer with", (MixerType-1) ? 16 : 32 );
0001    A1 00 00 00 00            mov       eax,long unsigned near MixerType
0006    48                        dec       eax
0007    74 42                     je        L$3
0009    B8 10 00 00 00            mov       eax,0x00000010
000E                          L$1:
000E    50                        push      eax
000F    68 00 00 00 00            push      offset L$132
0014    E8 00 00 00 00            call      printf_


  printf("%s interpolation and %s clipping\n\n", flag_interpolate ? "" : " no", flag_softclip ? "soft" : "hard");
0019    8A 25 00 00 00 00         mov       ah,char unsigned near flag_softclip
001F    83 C4 08                  add       esp,0x00000008
0022    84 E4                     test      ah,ah
0024    74 2C                     je        L$4
0026    B8 1A 00 00 00            mov       eax,offset L$133
002B                          L$2:
002B    8A 15 00 00 00 00         mov       dl,char unsigned near flag_interpolate
0031    50                        push      eax
0032    84 D2                     test      dl,dl
0034    74 23                     je        L$5
0036    B8 24 00 00 00            mov       eax,offset L$135
003B    50                        push      eax
003C    68 29 00 00 00            push      offset L$137
0041    E8 00 00 00 00            call      printf_
0046    83 C4 0C                  add       esp,0x0000000c

}
0049    5A                        pop       edx
004A    C3                        ret       
004B                          L$3:
004B    B8 20 00 00 00            mov       eax,0x00000020
0050    EB BC                     jmp       L$1
0052                          L$4:
0052    B8 1F 00 00 00            mov       eax,offset L$134
0057    EB D2                     jmp       L$2
0059                          L$5:
0059    B8 25 00 00 00            mov       eax,offset L$136
005E    50                        push      eax
005F    68 29 00 00 00            push      offset L$137
0064    E8 00 00 00 00            call      printf_
0069    83 C4 0C                  add       esp,0x0000000c
006C    5A                        pop       edx
006D    C3                        ret       
006E    8B C0                     mov       eax,eax



void initDMAbuffer ( unsigned long length )

Routine Size: 112 bytes,    Routine Base: _TEXT + 0000

0070                          void near initDMAbuffer( long unsigned ):
0070    52                        push      edx

{
  Mixerpointer1 = DMApointer;
0071    8B 15 00 00 00 00         mov       edx,char near * near DMApointer
0077    89 15 00 00 00 00         mov       char near * near Mixerpointer1,edx

  Mixerpointer2 = (char *)( DMApointer + length );
007D    01 C2                     add       edx,eax
007F    89 15 00 00 00 00         mov       char near * near Mixerpointer2,edx

}
0085    5A                        pop       edx
0086    C3                        ret       
0087    90                        nop       



void initMixer ( unsigned short MixerType )

Routine Size: 24 bytes,    Routine Base: _TEXT + 0070

0088                          void near initMixer( short unsigned ):
0088    53                        push      ebx
0089    51                        push      ecx
008A    52                        push      edx
008B    89 C2                     mov       edx,eax

{
  flag_MixerReady = 0;
008D    31 C9                     xor       ecx,ecx
008F    A1 00 00 00 00            mov       eax,long unsigned near block_length
0094    89 0D 00 00 00 00         mov       long unsigned near flag_MixerReady,ecx


  Mixer_length = block_length << flag_stereo;
009A    8A 0D 00 00 00 00         mov       cl,char unsigned near flag_stereo
00A0    D3 E0                     shl       eax,cl
00A2    A3 00 00 00 00            mov       long unsigned near Mixer_length,eax

  if ( MixerType == 1 )  Mixer_length <<= 1;
00A7    31 C0                     xor       eax,eax
00A9    66 89 D0                  mov       ax,dx
00AC    83 F8 01                  cmp       eax,0x00000001
00AF    74 35                     je        L$9

  if ( MixerType == 2 )  Mixer_length <<= 2;
00B1                          L$6:
00B1    31 C0                     xor       eax,eax
00B3    66 89 D0                  mov       ax,dx
00B6    83 F8 02                  cmp       eax,0x00000002
00B9    75 07                     jne       L$7
00BB    C1 25 00 00 00 00 02      shl       dword ptr long unsigned near Mixer_length,0x00000002


  MixerBlock = (char *)malloc ( Mixer_length );
00C2                          L$7:
00C2    A1 00 00 00 00            mov       eax,long unsigned near Mixer_length
00C7    E8 00 00 00 00            call      malloc_
00CC    A3 00 00 00 00            mov       char near * near MixerBlock,eax


  switch (MixerType)
00D1    66 83 FA 02               cmp       dx,0x0002
00D5    73 69                     jae       L$12
00D7    66 83 FA 01               cmp       dx,0x0001
00DB    74 19                     je        L$10

  {
   case 1:
           Voltable8 = (char *)malloc ( 258*256*2 );  // = 128 kb
           calcVol8for16 ( Voltable8 );
           MasterVolumeTable = (char *)malloc ( 132000 ); // = 128 KB
           break;
   case 2:
           Voltable8 = (char *)malloc ( 258*256*4 );  // = 256 kb
           calcVol8for32 ( Voltable8 );
           MasterVolumeTable = (char *)malloc ( 16390*4 ); // = 64 kb
           break;
   case 3:
           break;
  }

  resetMixer();
00DD                          L$8:
00DD    E8 00 00 00 00            call      void near resetMixer()

}
00E2    5A                        pop       edx
00E3    59                        pop       ecx
00E4    5B                        pop       ebx
00E5    C3                        ret       
00E6                          L$9:
00E6    8B 1D 00 00 00 00         mov       ebx,long unsigned near Mixer_length
00EC    01 DB                     add       ebx,ebx
00EE    89 1D 00 00 00 00         mov       long unsigned near Mixer_length,ebx
00F4    EB BB                     jmp       L$6

00F6                          L$10:
00F6    B8 00 04 02 00            mov       eax,0x00020400
00FB    E8 00 00 00 00            call      malloc_
0100    A3 00 00 00 00            mov       char near * near Voltable8,eax

0105    E8 00 00 00 00            call      void near calcVol8for16( char near * )

010A    B8 A0 03 02 00            mov       eax,0x000203a0
010F    E8 00 00 00 00            call      malloc_
0114    A3 00 00 00 00            mov       char near * near MasterVolumeTable,eax

0119    EB C2                     jmp       L$8

011B                          L$11:
011B    B8 00 08 04 00            mov       eax,0x00040800
0120    E8 00 00 00 00            call      malloc_
0125    A3 00 00 00 00            mov       char near * near Voltable8,eax

012A    E8 00 00 00 00            call      void near calcVol8for32( char near * )

012F    B8 18 00 01 00            mov       eax,0x00010018
0134    E8 00 00 00 00            call      malloc_
0139    A3 00 00 00 00            mov       char near * near MasterVolumeTable,eax

013E    EB 9D                     jmp       L$8
0140                          L$12:
0140    76 D9                     jbe       L$11
0142    E8 00 00 00 00            call      void near resetMixer()
0147    5A                        pop       edx
0148    59                        pop       ecx
0149    5B                        pop       ebx
014A    C3                        ret       
014B    90                        nop       



void startMixer ( unsigned short MixerType )

Routine Size: 196 bytes,    Routine Base: _TEXT + 0088

014C                          void near startMixer( short unsigned ):
014C    53                        push      ebx
014D    51                        push      ecx
014E    52                        push      edx
014F    56                        push      esi
0150    57                        push      edi
0151    55                        push      ebp

{
  switch (MixerType)
0152    66 3D 01 00               cmp       ax,0x0001
0156    72 42                     jb        L$14
0158    0F 87 A1 00 00 00         ja        L$17

         {
          case 1:
                  if (flag_16bit == 0)
015E    31 C0                     xor       eax,eax
0160    A0 00 00 00 00            mov       al,char unsigned near flag_16bit
0165    85 C0                     test      eax,eax
0167    75 42                     jne       L$15

                      calcMasterVol8for16 ( MasterVolume, MasterVolumeTable );
0169    8B 15 00 00 00 00         mov       edx,char near * near MasterVolumeTable
016F    A1 00 00 00 00            mov       eax,long unsigned near MasterVolume
0174    E8 00 00 00 00            call      void near calcMasterVol8for16( long unsigned, char near * )

                  else
                      calcMasterVol16for16 ( MasterVolume, MasterVolumeTable );
                  MixRealChannel = Mix16Channel;
0179                          L$13:
0179    BE 00 00 00 00            mov       esi,offset void near Mix16Channel( long unsigned, long unsigned, long unsigned )

                  MixRealIChannel = Mix16IChannel;
017E    BF 00 00 00 00            mov       edi,offset void near Mix16IChannel( long unsigned, long unsigned, long unsigned )

                  MixRealICarry = Mix16ICarry;
0183    BD 00 00 00 00            mov       ebp,offset void near Mix16ICarry( long unsigned, long unsigned, long unsigned, long unsigned, long unsigned )
0188    89 35 00 00 00 00         mov       void (near * near MixRealChannel)( long unsigned, long unsigned, long unsigned ),esi
018E    89 3D 00 00 00 00         mov       void (near * near MixRealIChannel)( long unsigned, long unsigned, long unsigned ),edi
0194    89 2D 00 00 00 00         mov       void (near * near MixRealICarry)( long unsigned, long unsigned, long unsigned, long unsigned, long unsigned ),ebp

                  break;
          case 2:
                  calcMasterVolume32 ( MasterVolume, MasterVolumeTable );
                  MixRealChannel = Mix32Channel;
                  MixRealIChannel = Mix32IChannel;
                  MixRealICarry = Mix32ICarry;
                  break;
         }

 flag_MixerReady = 1;
019A                          L$14:
019A    C7 05 00 00 00 00 01 00 00 00
                                  mov       dword ptr long unsigned near flag_MixerReady,0x00000001

}
01A4    5D                        pop       ebp
01A5    5F                        pop       edi
01A6    5E                        pop       esi
01A7    5A                        pop       edx
01A8    59                        pop       ecx
01A9    5B                        pop       ebx
01AA    C3                        ret       

01AB                          L$15:
01AB    8B 15 00 00 00 00         mov       edx,char near * near MasterVolumeTable
01B1    A1 00 00 00 00            mov       eax,long unsigned near MasterVolume
01B6    E8 00 00 00 00            call      void near calcMasterVol16for16( long unsigned, char near * )
01BB    EB BC                     jmp       L$13

01BD                          L$16:
01BD    B9 00 00 00 00            mov       ecx,offset void near Mix32IChannel( long unsigned, long unsigned, long unsigned )

01C2    8B 15 00 00 00 00         mov       edx,char near * near MasterVolumeTable
01C8    A1 00 00 00 00            mov       eax,long unsigned near MasterVolume

01CD    BB 00 00 00 00            mov       ebx,offset void near Mix32ICarry( long unsigned, long unsigned, long unsigned, long unsigned, long unsigned )
01D2    E8 00 00 00 00            call      void near calcMasterVolume32( long unsigned, char near * )

01D7    BA 00 00 00 00            mov       edx,offset void near Mix32Channel( long unsigned, long unsigned, long unsigned )
01DC    89 0D 00 00 00 00         mov       void (near * near MixRealIChannel)( long unsigned, long unsigned, long unsigned ),ecx
01E2    89 1D 00 00 00 00         mov       void (near * near MixRealICarry)( long unsigned, long unsigned, long unsigned, long unsigned, long unsigned ),ebx
01E8    89 15 00 00 00 00         mov       void (near * near MixRealChannel)( long unsigned, long unsigned, long unsigned ),edx
01EE    C7 05 00 00 00 00 01 00 00 00
                                  mov       dword ptr long unsigned near flag_MixerReady,0x00000001
01F8    5D                        pop       ebp
01F9    5F                        pop       edi
01FA    5E                        pop       esi
01FB    5A                        pop       edx
01FC    59                        pop       ecx
01FD    5B                        pop       ebx
01FE    C3                        ret       

01FF                          L$17:
01FF    66 3D 02 00               cmp       ax,0x0002
0203    74 B8                     je        L$16
0205    C7 05 00 00 00 00 01 00 00 00
                                  mov       dword ptr long unsigned near flag_MixerReady,0x00000001
020F    5D                        pop       ebp
0210    5F                        pop       edi
0211    5E                        pop       esi
0212    5A                        pop       edx
0213    59                        pop       ecx
0214    5B                        pop       ebx
0215    C3                        ret       
0216    8B C0                     mov       eax,eax


void resetMixer ()

Routine Size: 204 bytes,    Routine Base: _TEXT + 014C

0218                          void near resetMixer():
0218    53                        push      ebx
0219    51                        push      ecx
021A    52                        push      edx
021B    56                        push      esi
021C    BE 80 00 00 00            mov       esi,0x00000080

{
 static unsigned long channel;

 flag_MixerReady = 0;
0221    31 D2                     xor       edx,edx


  ChannelUsed = 0;
0223    31 C9                     xor       ecx,ecx

  ChannelLast = 0;
0225    31 DB                     xor       ebx,ebx
0227    89 15 00 00 00 00         mov       long unsigned near flag_MixerReady,edx
022D    89 15 00 00 00 00         mov       long unsigned near ChannelUsed,edx
0233    89 15 00 00 00 00         mov       long unsigned near ChannelLast,edx


  for (channel = 0; channel < 256; channel++)
0239                          L$18:
0239    41                        inc       ecx

      {
       ChannelActiv[channel] = 0;
023A    88 99 FF FF FF FF         mov       char unsigned near ChannelActiv[]+0xffffffff[ecx],bl

       ChannelFlag[channel]  = 0;
0240    88 99 FF FF FF FF         mov       char unsigned near ChannelFlag[]+0xffffffff[ecx],bl


       ChannelSampleNr[channel]        = 0;
       ChannelVolume[channel]          = 0;
0246    89 1C 8D FC FF FF FF      mov       long unsigned near ChannelVolume[]+0xfffffffc[ecx*4],ebx
024D    89 34 8D FC FF FF FF      mov       long unsigned near ChannelPanning[]+0xfffffffc[ecx*4],esi

       ChannelPanning[channel]         = 128;
       ChannelSampleNr[channel]        = 0;
0254    89 1C 8D FC FF FF FF      mov       long unsigned near ChannelSampleNr[]+0xfffffffc[ecx*4],ebx

       ChannelSampleBits[channel]      = 0;
025B    88 99 FF FF FF FF         mov       char unsigned near ChannelSampleBits[]+0xffffffff[ecx],bl

       ChannelSampleMode[channel]      = 0;
0261    88 99 FF FF FF FF         mov       char unsigned near ChannelSampleMode[]+0xffffffff[ecx],bl

       ChannelSampleAddress[channel]   = 0;
0267    89 1C 8D FC FF FF FF      mov       long unsigned near ChannelSampleAddress[]+0xfffffffc[ecx*4],ebx

       ChannelSamplePosition[channel]  = 0;
026E    89 1C 8D FC FF FF FF      mov       long unsigned near ChannelSamplePosition[]+0xfffffffc[ecx*4],ebx

       ChannelSampleFraction[channel]  = 0;
0275    89 1C 8D FC FF FF FF      mov       long unsigned near ChannelSampleFraction[]+0xfffffffc[ecx*4],ebx

       ChannelSampleFrequence[channel] = 0;
027C    89 1C 8D FC FF FF FF      mov       long unsigned near ChannelSampleFrequence[]+0xfffffffc[ecx*4],ebx

       ChannelLoopMode[channel]        = 0;
0283    88 99 FF FF FF FF         mov       char unsigned near ChannelLoopMode[]+0xffffffff[ecx],bl

       ChannelLoopBegin[channel]       = 0;
0289    89 1C 8D FC FF FF FF      mov       long unsigned near ChannelLoopBegin[]+0xfffffffc[ecx*4],ebx

       ChannelLoopEnd[channel]         = 0;
0290    89 1C 8D FC FF FF FF      mov       long unsigned near ChannelLoopEnd[]+0xfffffffc[ecx*4],ebx

       ChannelVolumeLeft[channel]      = 0;
0297    89 1C 8D FC FF FF FF      mov       long unsigned near ChannelVolumeLeft[]+0xfffffffc[ecx*4],ebx

       ChannelVolumeRight[channel]     = 0;
029E    89 1C 8D FC FF FF FF      mov       long unsigned near ChannelVolumeRight[]+0xfffffffc[ecx*4],ebx

       DeltaSamplePosition[channel]    = 0;
02A5    89 1C 8D FC FF FF FF      mov       long near DeltaSamplePosition[]+0xfffffffc[ecx*4],ebx

       DeltaSampleFraction[channel]    = 0;
02AC    89 1C 8D FC FF FF FF      mov       long near DeltaSampleFraction[]+0xfffffffc[ecx*4],ebx

       NextSamplePosition[channel]     = 0;
02B3    89 1C 8D FC FF FF FF      mov       long unsigned near NextSamplePosition[]+0xfffffffc[ecx*4],ebx

       NextSampleFraction[channel]     = 0;
02BA    89 1C 8D FC FF FF FF      mov       long unsigned near NextSampleFraction[]+0xfffffffc[ecx*4],ebx

       NextChannelActiv[channel]       = 0;
02C1    88 99 FF FF FF FF         mov       char unsigned near NextChannelActiv[]+0xffffffff[ecx],bl
02C7    81 F9 00 01 00 00         cmp       ecx,0x00000100
02CD    0F 82 66 FF FF FF         jb        L$18

      }
}
02D3    89 0D 00 00 00 00         mov       long unsigned near void near resetMixer()::.0::channel,ecx
02D9    5E                        pop       esi
02DA    5A                        pop       edx
02DB    59                        pop       ecx
02DC    5B                        pop       ebx
02DD    C3                        ret       
02DE    8B C0                     mov       eax,eax


void closeMixer ( )

Routine Size: 200 bytes,    Routine Base: _TEXT + 0218

02E0                          void near closeMixer():
02E0    53                        push      ebx
02E1    51                        push      ecx
02E2    52                        push      edx
02E3    56                        push      esi
02E4    57                        push      edi
02E5    55                        push      ebp

{
  if ( MixerBlock != NULL )  free ( MixerBlock );
02E6    8B 15 00 00 00 00         mov       edx,char near * near MixerBlock
02EC    85 D2                     test      edx,edx
02EE    75 40                     jne       L$22

  MixerBlock = NULL;
02F0                          L$19:
02F0    31 C9                     xor       ecx,ecx


  if ( Voltable8 != NULL )  free ( Voltable8 );
02F2    8B 1D 00 00 00 00         mov       ebx,char near * near Voltable8
02F8    89 0D 00 00 00 00         mov       char near * near MixerBlock,ecx
02FE    85 DB                     test      ebx,ebx
0300    74 07                     je        L$20
0302    89 D8                     mov       eax,ebx
0304    E8 00 00 00 00            call      free_

  Voltable8 = NULL;
0309                          L$20:
0309    31 F6                     xor       esi,esi


//  if ( Voltable16 != NULL )  free ( Voltable16 );
//  Voltable16 = NULL;

  if ( MasterVolumeTable != NULL )  free ( MasterVolumeTable );
030B    8B 3D 00 00 00 00         mov       edi,char near * near MasterVolumeTable
0311    89 35 00 00 00 00         mov       char near * near Voltable8,esi
0317    85 FF                     test      edi,edi
0319    75 1E                     jne       L$23

  MasterVolumeTable = NULL;
031B                          L$21:
031B    31 ED                     xor       ebp,ebp
031D    89 2D 00 00 00 00         mov       char near * near MasterVolumeTable,ebp


  flag_MixerReady = 0;
0323    89 2D 00 00 00 00         mov       long unsigned near flag_MixerReady,ebp

}
0329    5D                        pop       ebp
032A    5F                        pop       edi
032B    5E                        pop       esi
032C    5A                        pop       edx
032D    59                        pop       ecx
032E    5B                        pop       ebx
032F    C3                        ret       
0330                          L$22:
0330    89 D0                     mov       eax,edx
0332    E8 00 00 00 00            call      free_
0337    EB B7                     jmp       L$19
0339                          L$23:
0339    89 F8                     mov       eax,edi
033B    E8 00 00 00 00            call      free_
0340    EB D9                     jmp       L$21
0342    8B C0                     mov       eax,eax



// ************************** the real mixer ********************************

unsigned long Calc_Scaling ( unsigned long channel )

Routine Size: 100 bytes,    Routine Base: _TEXT + 02E0

0344                          long unsigned near Calc_Scaling( long unsigned ):
0344    53                        push      ebx
0345    51                        push      ecx
0346    52                        push      edx

{
 static unsigned long scale;

 scale = divide_64bit (ChannelSampleFrequence[channel] << 1,0,0,MixSpeed);
0347    8B 0D 00 00 00 00         mov       ecx,long unsigned near MixSpeed
034D    8B 04 85 00 00 00 00      mov       eax,long unsigned near ChannelSampleFrequence[][eax*4]
0354    31 DB                     xor       ebx,ebx
0356    31 D2                     xor       edx,edx
0358    01 C0                     add       eax,eax
035A    C1 E3 10                  shl       ebx,0x00000010
035D    66 89 CB                  mov       bx,cx
0360    89 D1                     mov       ecx,edx
0362    31 D2                     xor       edx,edx
0364    0F A4 C2 10               shld      edx,eax,0x00000010
0368    C1 E0 10                  shl       eax,0x00000010
036B    66 89 C8                  mov       ax,cx
036E    F7 F3                     div       ebx
0370    A3 00 00 00 00            mov       long unsigned volatile near Division,eax
0375    89 15 00 00 00 00         mov       long unsigned volatile near Div_Fraction,edx
037B    A3 00 00 00 00            mov       long unsigned near long unsigned near Calc_Scaling( long unsigned )::.0::scale,eax


return ((scale + 1) >> 1);
0380    40                        inc       eax

}
0381    D1 E8                     shr       eax,0x00000001
0383    5A                        pop       edx
0384    59                        pop       ecx
0385    5B                        pop       ebx
0386    C3                        ret       
0387    90                        nop       



void PrepareMixing()

Routine Size: 68 bytes,    Routine Base: _TEXT + 0344

0388                          void near PrepareMixing():
0388    53                        push      ebx
0389    51                        push      ecx
038A    52                        push      edx
038B    56                        push      esi
038C    57                        push      edi
038D    55                        push      ebp
038E    8B 35 00 00 00 00         mov       esi,long near void near PrepareMixing()::.0::Pan
0394    8B 3D 00 00 00 00         mov       edi,long unsigned near void near PrepareMixing()::.0::scaling
039A    8B 15 00 00 00 00         mov       edx,long unsigned near ChannelLast

{
static unsigned long channel;
static unsigned long scaling;

static   signed long Pan;

  for (channel = 0; channel < ChannelLast; channel++)  // go through all channels
03A0    31 C9                     xor       ecx,ecx
03A2    85 D2                     test      edx,edx
03A4    0F 86 EB 00 00 00         jbe       L$30

     {
      // calculate scaling of every channel

      scaling = Calc_Scaling ( channel );
03AA                          L$24:
03AA    89 C8                     mov       eax,ecx
03AC    89 0D 00 00 00 00         mov       long unsigned near void near PrepareMixing()::.0::channel,ecx
03B2    89 3D 00 00 00 00         mov       long unsigned near void near PrepareMixing()::.0::scaling,edi
03B8    E8 00 00 00 00            call      long unsigned near Calc_Scaling( long unsigned )
03BD    8B 0D 00 00 00 00         mov       ecx,long unsigned near void near PrepareMixing()::.0::channel
03C3    89 C7                     mov       edi,eax

      if ( scaling < 16 )  ChannelActiv[channel] = 0;
03C5    83 F8 10                  cmp       eax,0x00000010
03C8    0F 82 DA 00 00 00         jb        L$31
03CE                          L$25:
03CE    89 F8                     mov       eax,edi
03D0    8D 1C 8D 00 00 00 00      lea       ebx,[ecx*4]
03D7    C1 E8 10                  shr       eax,0x00000010
03DA    89 83 00 00 00 00         mov       long near DeltaSamplePosition[][ebx],eax

      DeltaSamplePosition[channel] = scaling >> 16;
      DeltaSampleFraction[channel] = scaling & 65535;
03E0    89 F8                     mov       eax,edi

03E2    8B 35 00 00 00 00         mov       esi,long near void near PrepareMixing()::.0::Pan
03E8    25 FF FF 00 00            and       eax,0x0000ffff


      // calculate panning volume

      if ( ChannelVolume[channel] > 256 )  ChannelVolume[channel] = 256;
03ED    8B AB 00 00 00 00         mov       ebp,long unsigned near ChannelVolume[][ebx]
03F3    89 83 00 00 00 00         mov       long near DeltaSampleFraction[][ebx],eax
03F9    81 FD 00 01 00 00         cmp       ebp,0x00000100
03FF    76 0A                     jbe       L$26
0401    C7 83 00 00 00 00 00 01 00 00
                                  mov       dword ptr long unsigned near ChannelVolume[][ebx],0x00000100


      if ( flag_stereo == 1 )
040B                          L$26:
040B    31 C0                     xor       eax,eax
040D    A0 00 00 00 00            mov       al,char unsigned near flag_stereo
0412    83 F8 01                  cmp       eax,0x00000001
0415    75 69                     jne       L$29

         {
          Pan = ( ((signed long)(ChannelPanning[channel] & 511) - 128) * (signed long)ChannelSeperation + 128 ) / 256;
0417    8D 1C 8D 00 00 00 00      lea       ebx,[ecx*4]
041E    8B 83 00 00 00 00         mov       eax,long unsigned near ChannelPanning[][ebx]
0424    25 FF 01 00 00            and       eax,0x000001ff
0429    8B 15 00 00 00 00         mov       edx,long unsigned near ChannelSeperation
042F    2D 80 00 00 00            sub       eax,0x00000080
0434    0F AF D0                  imul      edx,eax
0437    81 C2 80 00 00 00         add       edx,0x00000080
043D    89 D0                     mov       eax,edx
043F    C1 FA 1F                  sar       edx,0x0000001f
0442    C1 E2 08                  shl       edx,0x00000008
0445    1B C2                     sbb       eax,edx
0447    C1 F8 08                  sar       eax,0x00000008
044A    89 C6                     mov       esi,eax


          if ( Pan > 0 )
044C    85 C0                     test      eax,eax
044E    7E 65                     jle       L$32

             ChannelVolumeLeft[channel] = ( ChannelVolume[channel] * (128 - Pan) ) >> 7;
0450    B8 80 00 00 00            mov       eax,0x00000080
0455    8B 93 00 00 00 00         mov       edx,long unsigned near ChannelVolume[][ebx]
045B    29 F0                     sub       eax,esi
045D    0F AF C2                  imul      eax,edx
0460    C1 E8 07                  shr       eax,0x00000007
0463                          L$27:
0463    89 83 00 00 00 00         mov       long unsigned near ChannelVolumeLeft[][ebx],eax
0469    8D 1C 8D 00 00 00 00      lea       ebx,[ecx*4]

          else  ChannelVolumeLeft[channel] = ChannelVolume[channel];

          if ( Pan < 0 )
0470    85 F6                     test      esi,esi
0472    7C 49                     jl        L$33

             ChannelVolumeRight[channel] = ( ChannelVolume[channel] * (128 + Pan) ) >> 7;
          else  ChannelVolumeRight[channel] = ChannelVolume[channel];
0474    8B 83 00 00 00 00         mov       eax,long unsigned near ChannelVolume[][ebx]
047A                          L$28:
047A    89 83 00 00 00 00         mov       long unsigned near ChannelVolumeRight[][ebx],eax
0480                          L$29:
0480    8B 1D 00 00 00 00         mov       ebx,long unsigned near ChannelLast
0486    41                        inc       ecx
0487    89 35 00 00 00 00         mov       long near void near PrepareMixing()::.0::Pan,esi
048D    39 D9                     cmp       ecx,ebx
048F    0F 82 15 FF FF FF         jb        L$24

         }
     }
}
0495                          L$30:
0495    89 3D 00 00 00 00         mov       long unsigned near void near PrepareMixing()::.0::scaling,edi
049B    89 0D 00 00 00 00         mov       long unsigned near void near PrepareMixing()::.0::channel,ecx
04A1    5D                        pop       ebp
04A2    5F                        pop       edi
04A3    5E                        pop       esi
04A4    5A                        pop       edx
04A5    59                        pop       ecx
04A6    5B                        pop       ebx
04A7    C3                        ret       
04A8                          L$31:
04A8    30 D2                     xor       dl,dl
04AA    88 91 00 00 00 00         mov       char unsigned near ChannelActiv[][ecx],dl
04B0    E9 19 FF FF FF            jmp       L$25

04B5                          L$32:
04B5    8B 83 00 00 00 00         mov       eax,long unsigned near ChannelVolume[][ebx]
04BB    EB A6                     jmp       L$27

04BD                          L$33:
04BD    8D 86 80 00 00 00         lea       eax,0x80[esi]
04C3    0F AF 83 00 00 00 00      imul      eax,long unsigned near ChannelVolume[][ebx]
04CA    C1 E8 07                  shr       eax,0x00000007
04CD    EB AB                     jmp       L$28
04CF    90                        nop       
04D0                          L$34:
04D0    D5 05 00 00                                     DD	L$38
04D4    F5 06 00 00                                     DD	L$49
04D8    27 06 00 00                                     DD	L$40
04DC    27 06 00 00                                     DD	L$40



void DoPreMixing ( unsigned long MixLength )

Routine Size: 344 bytes,    Routine Base: _TEXT + 0388

04E0                          void near DoPreMixing( long unsigned ):
04E0    53                        push      ebx
04E1    51                        push      ecx
04E2    52                        push      edx
04E3    56                        push      esi
04E4    57                        push      edi
04E5    55                        push      ebp
04E6    83 EC 04                  sub       esp,0x00000004
04E9    8B 15 00 00 00 00         mov       edx,long unsigned near void near DoPreMixing( long unsigned )::.0::EndPosition
04EF    8B 35 00 00 00 00         mov       esi,long unsigned near void near DoPreMixing( long unsigned )::.0::channel
04F5    8B 3D 00 00 00 00         mov       edi,long unsigned near void near DoPreMixing( long unsigned )::.0::EndFraction
04FB    89 04 24                  mov       [esp],eax

{
 static unsigned long channel;

 static   signed long DeltaPosition, DeltaFraction;
 static unsigned long Position, Fraction;
 static unsigned long EndPosition, EndFraction;
 static unsigned long LengthPosition, LengthFraction;

 PrepareMixing();
04FE    E8 00 00 00 00            call      void near PrepareMixing()
0503    8B 0D 00 00 00 00         mov       ecx,long unsigned near ChannelLast


 for (channel = 0; channel < ChannelLast; channel++)  // go through all channels
0509    31 F6                     xor       esi,esi
050B    85 C9                     test      ecx,ecx
050D    0F 86 32 01 00 00         jbe       L$41
0513    31 DB                     xor       ebx,ebx
0515                          L$35:
0515    8B 83 00 00 00 00         mov       eax,long unsigned near ChannelSamplePosition[][ebx]

     {

      Position = ChannelSamplePosition[channel];
051B    8B 3D 00 00 00 00         mov       edi,long unsigned near void near DoPreMixing( long unsigned )::.0::EndFraction
0521    A3 00 00 00 00            mov       long unsigned near void near DoPreMixing( long unsigned )::.0::Position,eax

      Fraction = ChannelSampleFraction[channel];
0526    8B 83 00 00 00 00         mov       eax,long unsigned near ChannelSampleFraction[][ebx]
052C    8B AB 00 00 00 00         mov       ebp,long unsigned near ChannelLoopEnd[][ebx]
0532    A3 00 00 00 00            mov       long unsigned near void near DoPreMixing( long unsigned )::.0::Fraction,eax


      if ( Position >= ChannelLoopEnd[channel] )
0537    A1 00 00 00 00            mov       eax,long unsigned near void near DoPreMixing( long unsigned )::.0::Position
053C    8B 15 00 00 00 00         mov       edx,long unsigned near void near DoPreMixing( long unsigned )::.0::EndPosition
0542    39 E8                     cmp       eax,ebp
0544    0F 83 83 01 00 00         jae       L$47

          ChannelLoopMode[channel] = 0;

      if ( Position >= ChannelSampleLength[channel] )
054A                          L$36:
054A    A1 00 00 00 00            mov       eax,long unsigned near void near DoPreMixing( long unsigned )::.0::Position
054F    3B 83 00 00 00 00         cmp       eax,long unsigned near ChannelSampleLength[][ebx]
0555    72 34                     jb        L$37

         {
          Position = ChannelSamplePosition[channel] = NextSamplePosition[channel] = 0;
0557    31 ED                     xor       ebp,ebp

          Fraction = ChannelSampleFraction[channel] = NextSampleFraction[channel] = 0;
          ChannelActiv[channel] = NextChannelActiv[channel] = 0;
0559    30 ED                     xor       ch,ch
055B    89 2D 00 00 00 00         mov       long unsigned near void near DoPreMixing( long unsigned )::.0::Position,ebp
0561    89 2D 00 00 00 00         mov       long unsigned near void near DoPreMixing( long unsigned )::.0::Fraction,ebp
0567    89 AB 00 00 00 00         mov       long unsigned near NextSamplePosition[][ebx],ebp
056D    89 AB 00 00 00 00         mov       long unsigned near ChannelSamplePosition[][ebx],ebp

0573    89 AB 00 00 00 00         mov       long unsigned near NextSampleFraction[][ebx],ebp
0579    89 AB 00 00 00 00         mov       long unsigned near ChannelSampleFraction[][ebx],ebp
057F    88 AE 00 00 00 00         mov       char unsigned near NextChannelActiv[][esi],ch
0585    88 AE 00 00 00 00         mov       char unsigned near ChannelActiv[][esi],ch

         }
058B                          L$37:
058B    31 C0                     xor       eax,eax
058D    8A 86 00 00 00 00         mov       al,char unsigned near ChannelActiv[][esi]


      if ( ChannelActiv[channel] == 1)    // if channel is aciv
0593    89 F5                     mov       ebp,esi
0595    83 F8 01                  cmp       eax,0x00000001
0598    0F 85 89 00 00 00         jne       L$40

         {
          DeltaPosition = DeltaSamplePosition[channel];
059E    8D 04 B5 00 00 00 00      lea       eax,[esi*4]
05A5    8B 88 00 00 00 00         mov       ecx,long near DeltaSamplePosition[][eax]
05AB    89 0D 00 00 00 00         mov       long near void near DoPreMixing( long unsigned )::.0::DeltaPosition,ecx

          DeltaFraction = DeltaSampleFraction[channel];
05B1    8B 88 00 00 00 00         mov       ecx,long near DeltaSampleFraction[][eax]
05B7    89 0D 00 00 00 00         mov       long near void near DoPreMixing( long unsigned )::.0::DeltaFraction,ecx


          switch ( ChannelLoopMode[channel] )
05BD    8A 8E 00 00 00 00         mov       cl,char unsigned near ChannelLoopMode[][esi]
05C3    80 F9 03                  cmp       cl,0x03
05C6    77 5F                     ja        L$40
05C8    81 E1 FF 00 00 00         and       ecx,0x000000ff
05CE    FF 24 8D D0 04 00 00      jmp       dword ptr L$34[ecx*4]

                 {
                  case 0: // no loop
05D5                          L$38:
05D5    8B 3C 24                  mov       edi,[esp]


                          EndFraction = Fraction + (DeltaFraction * MixLength);
05D8    8B 15 00 00 00 00         mov       edx,long near void near DoPreMixing( long unsigned )::.0::DeltaFraction
05DE    0F AF D7                  imul      edx,edi
05E1    8B 3D 00 00 00 00         mov       edi,long unsigned near void near DoPreMixing( long unsigned )::.0::Fraction
05E7    8B 0C 24                  mov       ecx,[esp]
05EA    01 D7                     add       edi,edx

                          EndPosition = Position + (DeltaPosition * MixLength) + (EndFraction >> 16);
05EC    8B 15 00 00 00 00         mov       edx,long near void near DoPreMixing( long unsigned )::.0::DeltaPosition
05F2    0F AF D1                  imul      edx,ecx
05F5    03 15 00 00 00 00         add       edx,long unsigned near void near DoPreMixing( long unsigned )::.0::Position
05FB    89 F9                     mov       ecx,edi
05FD    C1 E9 10                  shr       ecx,0x00000010
0600    01 CA                     add       edx,ecx

                          EndFraction = EndFraction & 65535;
0602    81 E7 FF FF 00 00         and       edi,0x0000ffff


                          if ( EndPosition < ChannelSampleLength[channel] )
0608    3B 90 00 00 00 00         cmp       edx,long unsigned near ChannelSampleLength[][eax]
060E    0F 83 C6 00 00 00         jae       L$48

                             {
                              NextSamplePosition[channel] = EndPosition;
0614    89 90 00 00 00 00         mov       long unsigned near NextSamplePosition[][eax],edx

                              NextSampleFraction[channel] = EndFraction;
061A    89 B8 00 00 00 00         mov       long unsigned near NextSampleFraction[][eax],edi


                              NextChannelActiv[channel] = 1;
0620                          L$39:
0620    C6 86 00 00 00 00 01      mov       byte ptr char unsigned near NextChannelActiv[][esi],0x01

                             }
0627                          L$40:
0627    8B 2D 00 00 00 00         mov       ebp,long unsigned near ChannelLast
062D    83 C3 04                  add       ebx,0x00000004
0630    46                        inc       esi
0631    89 15 00 00 00 00         mov       long unsigned near void near DoPreMixing( long unsigned )::.0::EndPosition,edx
0637    89 3D 00 00 00 00         mov       long unsigned near void near DoPreMixing( long unsigned )::.0::EndFraction,edi
063D    39 EE                     cmp       esi,ebp
063F    0F 82 D0 FE FF FF         jb        L$35


                          else
                             {
                              NextSamplePosition[channel] = 0;
                              NextSampleFraction[channel] = 0;

                              NextChannelActiv[channel] = 0;
                             }
                          break;

                  case 1: // loop forward

                          EndFraction = Fraction + (DeltaFraction * MixLength);
                          EndPosition = Position + (DeltaPosition * MixLength) + ( EndFraction >> 16 );
                          EndFraction = EndFraction & 65535;

                          while ( EndPosition >= ChannelLoopEnd[channel] )
                            {
                             EndPosition = EndPosition - ChannelLoopEnd[channel] + ChannelLoopBegin[channel];
                            }

                          NextSamplePosition[channel] = EndPosition;
                          NextSampleFraction[channel] = EndFraction;

                          NextChannelActiv[channel] = 1;
                          break;

                  case 2: // loop reverse

                          break;

                  case 3: // loop pingpong
                          break;

                 }
         }
      }

 if ( IRQ_counter < 2 )
0645                          L$41:
0645    83 3D 00 00 00 00 02      cmp       dword ptr long volatile near IRQ_counter,0x00000002
064C    7D 2D                     jge       L$43


 switch ( MixerType )
064E    8B 3D 00 00 00 00         mov       edi,long unsigned near void near DoPreMixing( long unsigned )::.0::EndFraction
0654    A1 00 00 00 00            mov       eax,long unsigned near MixerType
0659    8B 15 00 00 00 00         mov       edx,long unsigned near void near DoPreMixing( long unsigned )::.0::EndPosition
065F    83 F8 02                  cmp       eax,0x00000002
0662    0F 83 EE 00 00 00         jae       L$52
0668    89 35 00 00 00 00         mov       long unsigned near void near DoPreMixing( long unsigned )::.0::channel,esi
066E    83 F8 01                  cmp       eax,0x00000001
0671    75 08                     jne       L$43

        {
         case 1:
                 DoMixing ( MixLength );
0673                          L$42:
0673    8B 04 24                  mov       eax,[esp]
0676    E8 00 00 00 00            call      void near DoMixing( long unsigned )

                 break;
         case 2:
                 DoMixing ( MixLength );
                 break;
         case 3:
                 //DoC16Mixing ( MixLength );
                 break;
        }

 for (channel = 0; channel < ChannelLast; channel++)  // go through all channels
067B                          L$43:
067B    8B 3D 00 00 00 00         mov       edi,long unsigned near void near DoPreMixing( long unsigned )::.0::EndFraction
0681    8B 15 00 00 00 00         mov       edx,long unsigned near void near DoPreMixing( long unsigned )::.0::EndPosition
0687    8B 0D 00 00 00 00         mov       ecx,long unsigned near ChannelLast
068D    31 F6                     xor       esi,esi
068F    85 C9                     test      ecx,ecx
0691    76 1E                     jbe       L$46
0693                          L$44:
0693    31 C9                     xor       ecx,ecx
0695    8A 8E 00 00 00 00         mov       cl,char unsigned near ChannelActiv[][esi]

     {
       if ( ChannelActiv[channel] == 1 )
069B    89 F0                     mov       eax,esi
069D    83 F9 01                  cmp       ecx,0x00000001
06A0    0F 84 C1 00 00 00         je        L$53
06A6                          L$45:
06A6    8B 1D 00 00 00 00         mov       ebx,long unsigned near ChannelLast
06AC    46                        inc       esi
06AD    39 DE                     cmp       esi,ebx
06AF    72 E2                     jb        L$44

          {
           //if ( ChannelSamplePosition[channel] != NextSamplePosition[channel] )
           //   printf("Calc NextPos wrong !, %i\n", NextSamplePosition[channel]-ChannelSamplePosition[channel]);
           ChannelSamplePosition[channel] = NextSamplePosition[channel];
           ChannelSampleFraction[channel] = NextSampleFraction[channel];

           ChannelActiv[channel] = NextChannelActiv[channel];
          }
     }

}
06B1                          L$46:
06B1    89 3D 00 00 00 00         mov       long unsigned near void near DoPreMixing( long unsigned )::.0::EndFraction,edi
06B7    89 35 00 00 00 00         mov       long unsigned near void near DoPreMixing( long unsigned )::.0::channel,esi
06BD    89 15 00 00 00 00         mov       long unsigned near void near DoPreMixing( long unsigned )::.0::EndPosition,edx
06C3    83 C4 04                  add       esp,0x00000004
06C6    5D                        pop       ebp
06C7    5F                        pop       edi
06C8    5E                        pop       esi
06C9    5A                        pop       edx
06CA    59                        pop       ecx
06CB    5B                        pop       ebx
06CC    C3                        ret       

06CD                          L$47:
06CD    30 C9                     xor       cl,cl
06CF    88 8E 00 00 00 00         mov       char unsigned near ChannelLoopMode[][esi],cl
06D5    E9 70 FE FF FF            jmp       L$36

06DA                          L$48:
06DA    31 C9                     xor       ecx,ecx
06DC    89 88 00 00 00 00         mov       long unsigned near NextSamplePosition[][eax],ecx

06E2    89 88 00 00 00 00         mov       long unsigned near NextSampleFraction[][eax],ecx

06E8    30 C0                     xor       al,al
06EA    88 86 00 00 00 00         mov       char unsigned near NextChannelActiv[][esi],al

06F0    E9 32 FF FF FF            jmp       L$40

06F5                          L$49:
06F5    8B 0C 24                  mov       ecx,[esp]

06F8    8B 15 00 00 00 00         mov       edx,long near void near DoPreMixing( long unsigned )::.0::DeltaFraction
06FE    0F AF D1                  imul      edx,ecx
0701    8B 3D 00 00 00 00         mov       edi,long unsigned near void near DoPreMixing( long unsigned )::.0::Fraction
0707    01 D7                     add       edi,edx

0709    8B 15 00 00 00 00         mov       edx,long near void near DoPreMixing( long unsigned )::.0::DeltaPosition
070F    0F AF D1                  imul      edx,ecx
0712    03 15 00 00 00 00         add       edx,long unsigned near void near DoPreMixing( long unsigned )::.0::Position
0718    89 F9                     mov       ecx,edi
071A    C1 E9 10                  shr       ecx,0x00000010

071D    81 E7 FF FF 00 00         and       edi,0x0000ffff
0723    01 CA                     add       edx,ecx
0725    89 C1                     mov       ecx,eax
0727    3B 90 00 00 00 00         cmp       edx,long unsigned near ChannelLoopEnd[][eax]
072D    72 16                     jb        L$51

072F                          L$50:
072F    89 D0                     mov       eax,edx
0731    8B A9 00 00 00 00         mov       ebp,long unsigned near ChannelLoopEnd[][ecx]
0737    8B 91 00 00 00 00         mov       edx,long unsigned near ChannelLoopBegin[][ecx]
073D    29 E8                     sub       eax,ebp
073F    01 C2                     add       edx,eax

0741    39 EA                     cmp       edx,ebp
0743    73 EA                     jae       L$50

0745                          L$51:
0745    89 91 00 00 00 00         mov       long unsigned near NextSamplePosition[][ecx],edx

074B    89 B9 00 00 00 00         mov       long unsigned near NextSampleFraction[][ecx],edi

0751    E9 CA FE FF FF            jmp       L$39

0756                          L$52:
0756    89 35 00 00 00 00         mov       long unsigned near void near DoPreMixing( long unsigned )::.0::channel,esi
075C    0F 86 11 FF FF FF         jbe       L$42
0762    E9 14 FF FF FF            jmp       L$43

0767                          L$53:
0767    8B 1C B5 00 00 00 00      mov       ebx,long unsigned near NextSamplePosition[][esi*4]
076E    89 1C B5 00 00 00 00      mov       long unsigned near ChannelSamplePosition[][esi*4],ebx

0775    8B 1C B5 00 00 00 00      mov       ebx,long unsigned near NextSampleFraction[][esi*4]
077C    89 1C B5 00 00 00 00      mov       long unsigned near ChannelSampleFraction[][esi*4],ebx

0783    8A 9E 00 00 00 00         mov       bl,char unsigned near NextChannelActiv[][esi]
0789    88 9E 00 00 00 00         mov       char unsigned near ChannelActiv[][esi],bl

078F    E9 12 FF FF FF            jmp       L$45



void clearMix16 ();
#pragma aux clearMix16 modify exact [eax ecx edi] = \
            "mov ecx, Mixer_length"\
            "mov edi, MixerBlock"\
            "mov eax, 0x80008000"\
            "shr ecx,2"\
            "rep stosd";


void clearMix32 ();
#pragma aux clearMix32 modify exact [eax ecx edi] = \
            "mov ecx, Mixer_length"\
            "mov edi, MixerBlock"\
            "mov eax, 0x00000000"\
            "shr ecx,2"\
            "rep stosd";


void clearMixer ()

Routine Size: 692 bytes,    Routine Base: _TEXT + 04E0

0794                          void near clearMixer():
0794    51                        push      ecx
0795    57                        push      edi

{
 switch ( MixerType )
0796    A1 00 00 00 00            mov       eax,long unsigned near MixerType
079B    83 F8 02                  cmp       eax,0x00000002
079E    73 3A                     jae       L$56
07A0    83 F8 01                  cmp       eax,0x00000001
07A3    74 03                     je        L$54

        {
         case 1:
                 clearMix16();
                 break;
         case 2:
                 clearMix32();
                 break;
         case 3:
                 clearMix16();
                 break;
        }

}
07A5    5F                        pop       edi
07A6    59                        pop       ecx
07A7    C3                        ret       

07A8                          L$54:
07A8    8B 0D 00 00 00 00         mov       ecx,long unsigned near Mixer_length
07AE    8B 3D 00 00 00 00         mov       edi,char near * near MixerBlock
07B4    B8 00 80 00 80            mov       eax,0x80008000
07B9    C1 E9 02                  shr       ecx,0x00000002
07BC    F3 AB                     repe stosd 
07BE    5F                        pop       edi
07BF    59                        pop       ecx
07C0    C3                        ret       

07C1                          L$55:
07C1    8B 0D 00 00 00 00         mov       ecx,long unsigned near Mixer_length
07C7    8B 3D 00 00 00 00         mov       edi,char near * near MixerBlock
07CD    B8 00 00 00 00            mov       eax,0x00000000
07D2    C1 E9 02                  shr       ecx,0x00000002
07D5    F3 AB                     repe stosd 
07D7    5F                        pop       edi
07D8    59                        pop       ecx
07D9    C3                        ret       

07DA                          L$56:
07DA    76 E5                     jbe       L$55
07DC    83 F8 03                  cmp       eax,0x00000003
07DF    74 C7                     je        L$54
07E1    5F                        pop       edi
07E2    59                        pop       ecx
07E3    C3                        ret       
07E4                          L$57:
07E4    AD 08 00 00                                     DD	L$62
07E8    71 09 00 00                                     DD	L$66
07EC    68 08 00 00                                     DD	L$60
07F0    68 08 00 00                                     DD	L$60
07F4                          L$58:
07F4    EA 0B 00 00                                     DD	L$76
07F8    4A 0F 00 00                                     DD	L$90
07FC    BC 0B 00 00                                     DD	L$75
0800    BC 0B 00 00                                     DD	L$75



void DoMixing ( unsigned long MixLength )

Routine Size: 112 bytes,    Routine Base: _TEXT + 0794

0804                          void near DoMixing( long unsigned ):
0804    53                        push      ebx
0805    51                        push      ecx
0806    52                        push      edx
0807    56                        push      esi
0808    57                        push      edi
0809    55                        push      ebp
080A    83 EC 04                  sub       esp,0x00000004
080D    8B 35 00 00 00 00         mov       esi,long unsigned near void near DoMixing( long unsigned )::.0::Fraction
0813    8B 3D 00 00 00 00         mov       edi,long unsigned near void near DoMixing( long unsigned )::.0::EndPosition
0819    8B 2D 00 00 00 00         mov       ebp,long unsigned near void near DoMixing( long unsigned )::.0::Position
081F    89 04 24                  mov       [esp],eax

{
 static unsigned long channel;

 static unsigned long counter, counter1, counter2;

 static   signed long DeltaPosition, DeltaFraction;
 static unsigned long Position, Fraction;
 static unsigned long Length, LoopBegin, LoopEnd;

 static unsigned long EndPosition, EndFraction;
 static unsigned long LengthPosition, LengthFraction;

 static unsigned long MixLengthRest, MixPosition;


 if ( flag_interpolate == 0 )  // not interpolated
0822    31 C0                     xor       eax,eax
0824    A0 00 00 00 00            mov       al,char unsigned near flag_interpolate
0829    85 C0                     test      eax,eax
082B    0F 85 4C 03 00 00         jne       L$73

    {

     for (channel = 0; channel < ChannelLast; channel++)  // go through all channels
0831    A3 00 00 00 00            mov       long unsigned near void near DoMixing( long unsigned )::.0::channel,eax
0836    83 3D 00 00 00 00 00      cmp       dword ptr long unsigned near ChannelLast,0x00000000
083D    76 52                     jbe       L$61

         {

          if ( ChannelActiv[channel] == 1)    // if channel is aciv
083F                          L$59:
083F    8B 15 00 00 00 00         mov       edx,long unsigned near void near DoMixing( long unsigned )::.0::channel
0845    89 35 00 00 00 00         mov       long unsigned near void near DoMixing( long unsigned )::.0::Fraction,esi
084B    31 C0                     xor       eax,eax
084D    89 3D 00 00 00 00         mov       long unsigned near void near DoMixing( long unsigned )::.0::EndPosition,edi
0853    8A 82 00 00 00 00         mov       al,char unsigned near ChannelActiv[][edx]
0859    89 2D 00 00 00 00         mov       long unsigned near void near DoMixing( long unsigned )::.0::Position,ebp
085F    83 F8 01                  cmp       eax,0x00000001
0862    0F 84 C2 02 00 00         je        L$72
0868                          L$60:
0868    8B 2D 00 00 00 00         mov       ebp,long unsigned near void near DoMixing( long unsigned )::.0::Position
086E    8B 3D 00 00 00 00         mov       edi,long unsigned near void near DoMixing( long unsigned )::.0::EndPosition
0874    8B 35 00 00 00 00         mov       esi,long unsigned near void near DoMixing( long unsigned )::.0::Fraction
087A    8B 15 00 00 00 00         mov       edx,long unsigned near void near DoMixing( long unsigned )::.0::channel
0880    42                        inc       edx
0881    8B 0D 00 00 00 00         mov       ecx,long unsigned near ChannelLast
0887    89 15 00 00 00 00         mov       long unsigned near void near DoMixing( long unsigned )::.0::channel,edx
088D    39 CA                     cmp       edx,ecx
088F    72 AE                     jb        L$59

             {
              DeltaPosition = DeltaSamplePosition[channel];
              DeltaFraction = DeltaSampleFraction[channel];
              Position = ChannelSamplePosition[channel];
              Fraction = ChannelSampleFraction[channel];

              switch ( ChannelLoopMode[channel] )
                     {
                      case 0: // no loop

                              Length = ChannelSampleLength[channel];

                              LengthPosition = Length - Position;
                              LengthFraction = (65536L - Fraction) & 65535;

                              if ( LengthFraction != 0 )
                                   LengthPosition--;

                              counter = divide_64bit( LengthPosition, LengthFraction, DeltaPosition, DeltaFraction );
                              if (Div_Fraction != 0)  counter++;

                              if ( counter != 0 )
                              if ( counter > MixLength )
                                 {
                                  counter = MixLength;
                                  MixRealChannel ( channel, counter, MixerAddress );
                                 }
                              else
                                  MixRealChannel ( channel, counter, MixerAddress );

                              break;

                      case 1: // loop forward

                              LoopBegin = ChannelLoopBegin[channel];
                              LoopEnd = ChannelLoopEnd[channel];

                              MixLengthRest = MixLength;
                              MixPosition = MixerAddress;

                              while ( MixLengthRest != 0 )
                                    {
                                     LengthPosition = LoopEnd - Position;
                                     LengthFraction = (65536L - Fraction) & 65535;

                                     if ( LengthFraction != 0 )
                                          LengthPosition--;

                                     counter = divide_64bit( LengthPosition, LengthFraction, DeltaPosition, DeltaFraction );
                                     if (Div_Fraction != 0)  counter++;

                                     if ( counter != 0 )
                                     if ( counter > MixLengthRest )
                                        {
                                         counter = MixLengthRest;
                                         MixRealChannel ( channel, counter, MixPosition );
                                         MixPosition += counter;
                                         MixLengthRest = 0;
                                        }
                                     else
                                        {
                                         MixRealChannel ( channel, counter, MixPosition );
                                         MixPosition += counter;
                                         MixLengthRest -= counter;

                                         Fraction = Fraction + (DeltaFraction * counter);
                                         Position = Position + (DeltaPosition * counter) + (Fraction >> 16);
                                         Fraction = Fraction & 65535;
                                         ChannelSamplePosition[channel] = Position = Position - LoopEnd + LoopBegin;
                                         ChannelSampleFraction[channel] = Fraction;
                                        }
                                     //if ( MixPosition > 4096)
                                     //   printf("Fault no interpolation!\n");
                                    }  // end while loop
                              break;

                     case 2: // loop reverse

                             break;

                     case 3: // loop pingpong

                             break;
                    }
            }  // end if activ
        }  // end channel loop
    }
 else  // ***************** interpolation is on ***********************
    {
     for (channel = 0; channel < ChannelLast; channel++)  // go through all channels
         {

          if ( ChannelActiv[channel] == 1)    // if channel is aciv
             {
              DeltaPosition = DeltaSamplePosition[channel];
              DeltaFraction = DeltaSampleFraction[channel];
              Position = ChannelSamplePosition[channel];
              Fraction = ChannelSampleFraction[channel];

              switch ( ChannelLoopMode[channel] )
                     {
                      case 0: // no loop

                              Length = ChannelSampleLength[channel];

                              MixLengthRest = MixLength;
                              MixPosition = MixerAddress;

                              LengthPosition = Length - Position;
                              LengthFraction = (65536L - Fraction) & 65535;

#ifdef cdebug                 
                              if ( LengthPosition == 0 ) printf("Holla!\n");
#endif
                              if ( LengthFraction != 0 )
                                  LengthPosition--;

                              counter = divide_64bit( LengthPosition, LengthFraction, DeltaPosition, DeltaFraction );
                              if (Div_Fraction != 0)  counter++;

                              if ( LengthPosition >= 1 )
                                   counter1 = divide_64bit( LengthPosition-1, LengthFraction, DeltaPosition, DeltaFraction );
                              else
                                   counter1 = 0;

                              counter2 = counter - counter1;

                              if ( counter1 != 0 ) // if no illegal value
                              if ( counter1 > MixLengthRest )
                                 {
                                  counter = MixLengthRest;
                                  MixRealIChannel ( channel, counter, MixPosition );
                                  MixPosition += counter;
                                  MixLengthRest = 0;
                                 }
                              else
                                 {
                                  counter = counter1;
                                  MixRealIChannel ( channel, counter, MixPosition );
                                  MixPosition += counter1;
                                  MixLengthRest -= counter1;

                                  Fraction = Fraction + (DeltaFraction * counter);
                                  Position = Position + (DeltaPosition * counter) + (Fraction >> 16);
                                  Fraction = Fraction & 65535;
                                 }
                              //  ChannelSamplePosition[channel] = Position;
                              //  ChannelSampleFraction[channel] = Fraction;
                              if ( MixLengthRest == 0 )  break;

                              if ( counter2 != 0 )  // if no illegal value
                              if ( counter2 > MixLengthRest )
                                 {
                                  counter = MixLengthRest;
                                  while ( counter > 0 )
                                        {
                                         EndPosition = Position + 1;
                                         if ( EndPosition >= Length )  EndPosition = Length-1;
                                         MixRealICarry ( channel, Position, EndPosition, Fraction, MixPosition );
                                         Fraction = Fraction + DeltaFraction;
                                         Position = Position + DeltaPosition + (Fraction >> 16);
                                         Fraction = Fraction & 65535;
                                         MixPosition++;
                                         counter--;
#ifdef cdebug
                                         if ( Position >= Length )
                                            {
                                             printf("Shit1! counter: %u\n", counter);
                                             //Position = Length-1;
                                            }
#endif
                                        }
                                  MixLengthRest = 0;
                                 }
                              else
                                 {
                                  counter = counter2;
                                  while ( counter > 0 )
                                        {
                                         EndPosition = Position + 1;
                                         if ( EndPosition >= Length )  EndPosition = Length-1;
                                         MixRealICarry ( channel, Position, EndPosition, Fraction, MixPosition );
                                         Fraction = Fraction + DeltaFraction;
                                         Position = Position + DeltaPosition + (Fraction >> 16);
                                         Fraction = Fraction & 65535;
                                         MixPosition++;
                                         counter--;
#ifdef cdebug
                                         if ( Position >= Length )
                                            {
                                             printf("Shit2! %u  counter2: %u\n", Length-Position, counter2);
                                             printf("counter1: %u  counter: %u\n", counter1, counter);
                                             printf("DeltaPosition: %u  DeltaFraction: %u\n", DeltaPosition, DeltaFraction);
                                             printf("CPosition: %u  CFraction: %u\n",ChannelSamplePosition[channel], ChannelSampleFraction[channel]);
                                             printf("Length: %u\n",Length);
                                             printf("LengthPos: %u  LengthFrac: %u\n", LengthPosition, LengthFraction);
                                             //Position = Length-1;
                                            }
#endif
                                        }
                                  MixLengthRest -= counter2;
                                 }
                              //   ChannelSamplePosition[channel] = Position;
                              //   ChannelSampleFraction[channel] = Fraction;
                              break;

                      case 1: // loop forward

                              LoopBegin = ChannelLoopBegin[channel];
                              LoopEnd = ChannelLoopEnd[channel];

                              MixLengthRest = MixLength;
                              MixPosition = MixerAddress;

                              while ( MixLengthRest > 0 )
                                    {
                                     LengthPosition = LoopEnd - Position;
                                     LengthFraction = (65536L - Fraction) & 65535;

                                     if ( LengthFraction > 0 )
                                          LengthPosition--;

                                     counter = divide_64bit( LengthPosition, LengthFraction, DeltaPosition, DeltaFraction );
                                     if (Div_Fraction != 0)  counter++;

                                     if ( LengthPosition >= 1 )
                                          counter1 = divide_64bit( LengthPosition-1, LengthFraction, DeltaPosition, DeltaFraction );
                                     else
                                          counter1 = 0;

                                     counter2 = counter - counter1;

                                     if ( counter1 != 0 )  // if no illegal value
                                     if ( counter1 > MixLengthRest )
                                        {
                                         counter = MixLengthRest;
                                         MixRealIChannel ( channel, counter, MixPosition );
                                         MixPosition += counter;
                                         MixLengthRest = 0;
                                        }
                                     else
                                        {
                                         counter = counter1;
                                         MixLengthRest -= counter;
                                         MixRealIChannel ( channel, counter, MixPosition );
                                         MixPosition += counter;
                                         Fraction = Fraction + (DeltaFraction * counter);
                                         Position = Position + (DeltaPosition * counter) + (Fraction >> 16);
                                         Fraction = Fraction & 65535;
                                         //ChannelSamplePosition[channel] = Position;
                                         //ChannelSampleFraction[channel] = Fraction;
                                        }

                                       ChannelSamplePosition[channel] = Position;
                                       ChannelSampleFraction[channel] = Fraction;
                                     if ( MixLengthRest == 0 )  break;

                                     if ( counter2 != 0 )  // if no illegal value
                                     if ( counter2 > MixLengthRest )
                                        {
                                         counter = MixLengthRest;
                                         while ( counter > 0 )
                                               {
                                                EndPosition = Position + 1;
                                                if ( EndPosition >= LoopEnd )  EndPosition = EndPosition - LoopEnd + LoopBegin;
                                                MixRealICarry ( channel, Position, EndPosition, Fraction, MixPosition );
                                                Fraction = Fraction + DeltaFraction;
                                                Position = Position + DeltaPosition + (Fraction >> 16);
                                                Fraction = Fraction & 65535;
                                                MixPosition++;
                                                counter--;
                                               }
                                         MixLengthRest = 0;
                                        }
                                     else
                                        {
                                         counter = counter2;
                                         while ( counter > 0 )
                                               {
                                                EndPosition = Position + 1;
                                                if ( EndPosition >= LoopEnd )  EndPosition = EndPosition - LoopEnd + LoopBegin;
                                                MixRealICarry ( channel, Position, EndPosition, Fraction, MixPosition );
                                                Fraction = Fraction + (unsigned long)DeltaFraction;
                                                Position = Position + (unsigned long)DeltaPosition + (Fraction >> 16);
                                                Fraction = Fraction & 65535;
                                                MixPosition++;
                                                counter--;
                                               }
                                         MixLengthRest -= counter2;
#ifdef cdebug
                                         if ( Position != LoopEnd )
                                            {
                                             printf("LoopPos: %u\n",LoopEnd-Position);
                                            }
#endif
                                         Position = Position - LoopEnd + LoopBegin;
                                        }
#ifdef cdebug
                                     if ( Position >= LoopEnd)
                                        printf("Fault2 in loop!\n");
#endif
                                     ChannelSamplePosition[channel] = Position;
                                     ChannelSampleFraction[channel] = Fraction;

                                    }  // end while loop
                              break;

                     case 2: // loop reverse

                             break;

                     case 3: // loop pingpong

                             break;
                    }
            }  // end if activ
        }  // end channel loop
    }
}
0891                          L$61:
0891    89 2D 00 00 00 00         mov       long unsigned near void near DoMixing( long unsigned )::.0::Position,ebp
0897    89 3D 00 00 00 00         mov       long unsigned near void near DoMixing( long unsigned )::.0::EndPosition,edi
089D    89 35 00 00 00 00         mov       long unsigned near void near DoMixing( long unsigned )::.0::Fraction,esi
08A3    83 C4 04                  add       esp,0x00000004
08A6    5D                        pop       ebp
08A7    5F                        pop       edi
08A8    5E                        pop       esi
08A9    5A                        pop       edx
08AA    59                        pop       ecx
08AB    5B                        pop       ebx
08AC    C3                        ret       

08AD                          L$62:
08AD    8B 80 00 00 00 00         mov       eax,long unsigned near ChannelSampleLength[][eax]
08B3    A3 00 00 00 00            mov       long unsigned near void near DoMixing( long unsigned )::.0::Length,eax

08B8    29 E8                     sub       eax,ebp
08BA    A3 00 00 00 00            mov       long unsigned near void near DoMixing( long unsigned )::.0::LengthPosition,eax

08BF    B8 00 00 01 00            mov       eax,0x00010000
08C4    29 F0                     sub       eax,esi
08C6    25 FF FF 00 00            and       eax,0x0000ffff
08CB    A3 00 00 00 00            mov       long unsigned near void near DoMixing( long unsigned )::.0::LengthFraction,eax

08D0    74 06                     je        L$63

08D2    FF 0D 00 00 00 00         dec       dword ptr long unsigned near void near DoMixing( long unsigned )::.0::LengthPosition

08D8                          L$63:
08D8    8B 0D 00 00 00 00         mov       ecx,long near void near DoMixing( long unsigned )::.0::DeltaFraction
08DE    8B 1D 00 00 00 00         mov       ebx,long near void near DoMixing( long unsigned )::.0::DeltaPosition
08E4    8B 15 00 00 00 00         mov       edx,long unsigned near void near DoMixing( long unsigned )::.0::LengthFraction
08EA    A1 00 00 00 00            mov       eax,long unsigned near void near DoMixing( long unsigned )::.0::LengthPosition
08EF    C1 E3 10                  shl       ebx,0x00000010
08F2    66 89 CB                  mov       bx,cx
08F5    89 D1                     mov       ecx,edx
08F7    31 D2                     xor       edx,edx
08F9    0F A4 C2 10               shld      edx,eax,0x00000010
08FD    C1 E0 10                  shl       eax,0x00000010
0900    66 89 C8                  mov       ax,cx
0903    F7 F3                     div       ebx
0905    A3 00 00 00 00            mov       long unsigned volatile near Division,eax
090A    89 15 00 00 00 00         mov       long unsigned volatile near Div_Fraction,edx
0910    A3 00 00 00 00            mov       long unsigned near void near DoMixing( long unsigned )::.0::counter,eax

0915    83 3D 00 00 00 00 00      cmp       dword ptr long unsigned volatile near Div_Fraction,0x00000000
091C    74 06                     je        L$64
091E    40                        inc       eax
091F    A3 00 00 00 00            mov       long unsigned near void near DoMixing( long unsigned )::.0::counter,eax

0924                          L$64:
0924    8B 1D 00 00 00 00         mov       ebx,long unsigned near void near DoMixing( long unsigned )::.0::counter
092A    85 DB                     test      ebx,ebx
092C    0F 84 36 FF FF FF         je        L$60

0932    8B 14 24                  mov       edx,[esp]
0935    39 D3                     cmp       ebx,edx
0937    76 1C                     jbe       L$65

0939    8B 1D 00 00 00 00         mov       ebx,long unsigned near MixerAddress
093F    A1 00 00 00 00            mov       eax,long unsigned near void near DoMixing( long unsigned )::.0::channel

0944    89 15 00 00 00 00         mov       long unsigned near void near DoMixing( long unsigned )::.0::counter,edx
094A    FF 15 00 00 00 00         call      dword ptr void (near * near MixRealChannel)( long unsigned, long unsigned, long unsigned )

0950    E9 13 FF FF FF            jmp       L$60

0955                          L$65:
0955    8B 1D 00 00 00 00         mov       ebx,long unsigned near MixerAddress
095B    8B 15 00 00 00 00         mov       edx,long unsigned near void near DoMixing( long unsigned )::.0::counter
0961    A1 00 00 00 00            mov       eax,long unsigned near void near DoMixing( long unsigned )::.0::channel
0966    FF 15 00 00 00 00         call      dword ptr void (near * near MixRealChannel)( long unsigned, long unsigned, long unsigned )
096C    E9 F7 FE FF FF            jmp       L$60

0971                          L$66:
0971    8B 90 00 00 00 00         mov       edx,long unsigned near ChannelLoopBegin[][eax]

0977    8B 80 00 00 00 00         mov       eax,long unsigned near ChannelLoopEnd[][eax]
097D    A3 00 00 00 00            mov       long unsigned near void near DoMixing( long unsigned )::.0::LoopEnd,eax

0982    8B 04 24                  mov       eax,[esp]
0985    8B 1C 24                  mov       ebx,[esp]
0988    A3 00 00 00 00            mov       long unsigned near void near DoMixing( long unsigned )::.0::MixLengthRest,eax

098D    A1 00 00 00 00            mov       eax,long unsigned near MixerAddress
0992    89 15 00 00 00 00         mov       long unsigned near void near DoMixing( long unsigned )::.0::LoopBegin,edx
0998    A3 00 00 00 00            mov       long unsigned near void near DoMixing( long unsigned )::.0::MixPosition,eax
099D    85 DB                     test      ebx,ebx
099F    0F 84 C3 FE FF FF         je        L$60

09A5                          L$67:
09A5    A1 00 00 00 00            mov       eax,long unsigned near void near DoMixing( long unsigned )::.0::LoopEnd
09AA    8B 2D 00 00 00 00         mov       ebp,long unsigned near void near DoMixing( long unsigned )::.0::Position
09B0    29 E8                     sub       eax,ebp

09B2    8B 35 00 00 00 00         mov       esi,long unsigned near void near DoMixing( long unsigned )::.0::Fraction
09B8    A3 00 00 00 00            mov       long unsigned near void near DoMixing( long unsigned )::.0::LengthPosition,eax
09BD    B8 00 00 01 00            mov       eax,0x00010000
09C2    29 F0                     sub       eax,esi
09C4    25 FF FF 00 00            and       eax,0x0000ffff
09C9    A3 00 00 00 00            mov       long unsigned near void near DoMixing( long unsigned )::.0::LengthFraction,eax

09CE    74 06                     je        L$68

09D0    FF 0D 00 00 00 00         dec       dword ptr long unsigned near void near DoMixing( long unsigned )::.0::LengthPosition

09D6                          L$68:
09D6    8B 0D 00 00 00 00         mov       ecx,long near void near DoMixing( long unsigned )::.0::DeltaFraction
09DC    8B 1D 00 00 00 00         mov       ebx,long near void near DoMixing( long unsigned )::.0::DeltaPosition
09E2    8B 15 00 00 00 00         mov       edx,long unsigned near void near DoMixing( long unsigned )::.0::LengthFraction
09E8    A1 00 00 00 00            mov       eax,long unsigned near void near DoMixing( long unsigned )::.0::LengthPosition
09ED    C1 E3 10                  shl       ebx,0x00000010
09F0    66 89 CB                  mov       bx,cx
09F3    89 D1                     mov       ecx,edx
09F5    31 D2                     xor       edx,edx
09F7    0F A4 C2 10               shld      edx,eax,0x00000010
09FB    C1 E0 10                  shl       eax,0x00000010
09FE    66 89 C8                  mov       ax,cx
0A01    F7 F3                     div       ebx
0A03    A3 00 00 00 00            mov       long unsigned volatile near Division,eax
0A08    89 15 00 00 00 00         mov       long unsigned volatile near Div_Fraction,edx
0A0E    A3 00 00 00 00            mov       long unsigned near void near DoMixing( long unsigned )::.0::counter,eax

0A13    83 3D 00 00 00 00 00      cmp       dword ptr long unsigned volatile near Div_Fraction,0x00000000
0A1A    74 06                     je        L$69
0A1C    40                        inc       eax
0A1D    A3 00 00 00 00            mov       long unsigned near void near DoMixing( long unsigned )::.0::counter,eax

0A22                          L$69:
0A22    8B 2D 00 00 00 00         mov       ebp,long unsigned near void near DoMixing( long unsigned )::.0::Position
0A28    8B 0D 00 00 00 00         mov       ecx,long unsigned near void near DoMixing( long unsigned )::.0::counter
0A2E    8B 35 00 00 00 00         mov       esi,long unsigned near void near DoMixing( long unsigned )::.0::Fraction
0A34    85 C9                     test      ecx,ecx
0A36    0F 84 97 00 00 00         je        L$70

0A3C    8B 1D 00 00 00 00         mov       ebx,long unsigned near void near DoMixing( long unsigned )::.0::MixLengthRest
0A42    39 D9                     cmp       ecx,ebx
0A44    0F 87 A8 00 00 00         ja        L$71

0A4A    8B 1D 00 00 00 00         mov       ebx,long unsigned near void near DoMixing( long unsigned )::.0::MixPosition
0A50    A1 00 00 00 00            mov       eax,long unsigned near void near DoMixing( long unsigned )::.0::channel
0A55    89 CA                     mov       edx,ecx
0A57    FF 15 00 00 00 00         call      dword ptr void (near * near MixRealChannel)( long unsigned, long unsigned, long unsigned )

0A5D    A1 00 00 00 00            mov       eax,long unsigned near void near DoMixing( long unsigned )::.0::counter
0A62    8B 15 00 00 00 00         mov       edx,long unsigned near void near DoMixing( long unsigned )::.0::MixPosition

0A68    8B 0D 00 00 00 00         mov       ecx,long unsigned near void near DoMixing( long unsigned )::.0::MixLengthRest
0A6E    8B 1D 00 00 00 00         mov       ebx,long unsigned near void near DoMixing( long unsigned )::.0::counter
0A74    01 C2                     add       edx,eax
0A76    29 C1                     sub       ecx,eax

0A78    A1 00 00 00 00            mov       eax,long near void near DoMixing( long unsigned )::.0::DeltaFraction
0A7D    0F AF C3                  imul      eax,ebx
0A80    8B 35 00 00 00 00         mov       esi,long unsigned near void near DoMixing( long unsigned )::.0::Fraction
0A86    01 C6                     add       esi,eax

0A88    A1 00 00 00 00            mov       eax,long near void near DoMixing( long unsigned )::.0::DeltaPosition
0A8D    0F AF C3                  imul      eax,ebx
0A90    8B 2D 00 00 00 00         mov       ebp,long unsigned near void near DoMixing( long unsigned )::.0::Position
0A96    01 C5                     add       ebp,eax
0A98    89 F0                     mov       eax,esi
0A9A    89 0D 00 00 00 00         mov       long unsigned near void near DoMixing( long unsigned )::.0::MixLengthRest,ecx
0AA0    C1 E8 10                  shr       eax,0x00000010

0AA3    8B 0D 00 00 00 00         mov       ecx,long unsigned near void near DoMixing( long unsigned )::.0::LoopEnd
0AA9    01 C5                     add       ebp,eax
0AAB    A1 00 00 00 00            mov       eax,long unsigned near void near DoMixing( long unsigned )::.0::LoopBegin
0AB0    29 CD                     sub       ebp,ecx
0AB2    01 C5                     add       ebp,eax
0AB4    A1 00 00 00 00            mov       eax,long unsigned near void near DoMixing( long unsigned )::.0::channel
0AB9    89 15 00 00 00 00         mov       long unsigned near void near DoMixing( long unsigned )::.0::MixPosition,edx

0ABF    81 E6 FF FF 00 00         and       esi,0x0000ffff
0AC5    89 2C 85 00 00 00 00      mov       long unsigned near ChannelSamplePosition[][eax*4],ebp

0ACC    89 34 85 00 00 00 00      mov       long unsigned near ChannelSampleFraction[][eax*4],esi

0AD3                          L$70:
0AD3    8B 0D 00 00 00 00         mov       ecx,long unsigned near void near DoMixing( long unsigned )::.0::MixLengthRest
0AD9    89 35 00 00 00 00         mov       long unsigned near void near DoMixing( long unsigned )::.0::Fraction,esi
0ADF    89 2D 00 00 00 00         mov       long unsigned near void near DoMixing( long unsigned )::.0::Position,ebp
0AE5    85 C9                     test      ecx,ecx
0AE7    0F 85 B8 FE FF FF         jne       L$67
0AED    E9 76 FD FF FF            jmp       L$60
0AF2                          L$71:
0AF2    A1 00 00 00 00            mov       eax,long unsigned near void near DoMixing( long unsigned )::.0::channel

0AF7    89 DA                     mov       edx,ebx
0AF9    89 1D 00 00 00 00         mov       long unsigned near void near DoMixing( long unsigned )::.0::counter,ebx

0AFF    8B 1D 00 00 00 00         mov       ebx,long unsigned near void near DoMixing( long unsigned )::.0::MixPosition
0B05    FF 15 00 00 00 00         call      dword ptr void (near * near MixRealChannel)( long unsigned, long unsigned, long unsigned )

0B0B    A1 00 00 00 00            mov       eax,long unsigned near void near DoMixing( long unsigned )::.0::counter
0B10    8B 1D 00 00 00 00         mov       ebx,long unsigned near void near DoMixing( long unsigned )::.0::MixPosition
0B16    01 C3                     add       ebx,eax

0B18    31 C0                     xor       eax,eax
0B1A    89 1D 00 00 00 00         mov       long unsigned near void near DoMixing( long unsigned )::.0::MixPosition,ebx
0B20    A3 00 00 00 00            mov       long unsigned near void near DoMixing( long unsigned )::.0::MixLengthRest,eax

0B25    E9 3E FD FF FF            jmp       L$60

0B2A                          L$72:
0B2A    8D 04 95 00 00 00 00      lea       eax,[edx*4]
0B31    8B 88 00 00 00 00         mov       ecx,long near DeltaSamplePosition[][eax]

0B37    8B A8 00 00 00 00         mov       ebp,long unsigned near ChannelSamplePosition[][eax]

0B3D    8B B0 00 00 00 00         mov       esi,long unsigned near ChannelSampleFraction[][eax]

0B43    8A 92 00 00 00 00         mov       dl,char unsigned near ChannelLoopMode[][edx]
0B49    89 0D 00 00 00 00         mov       long near void near DoMixing( long unsigned )::.0::DeltaPosition,ecx
0B4F    89 2D 00 00 00 00         mov       long unsigned near void near DoMixing( long unsigned )::.0::Position,ebp

0B55    8B 88 00 00 00 00         mov       ecx,long near DeltaSampleFraction[][eax]
0B5B    89 35 00 00 00 00         mov       long unsigned near void near DoMixing( long unsigned )::.0::Fraction,esi
0B61    89 0D 00 00 00 00         mov       long near void near DoMixing( long unsigned )::.0::DeltaFraction,ecx
0B67    80 FA 03                  cmp       dl,0x03
0B6A    0F 87 F8 FC FF FF         ja        L$60
0B70    81 E2 FF 00 00 00         and       edx,0x000000ff
0B76    FF 24 95 E4 07 00 00      jmp       dword ptr L$57[edx*4]

0B7D                          L$73:
0B7D    31 D2                     xor       edx,edx
0B7F    8B 0D 00 00 00 00         mov       ecx,long unsigned near ChannelLast
0B85    89 15 00 00 00 00         mov       long unsigned near void near DoMixing( long unsigned )::.0::channel,edx
0B8B    85 C9                     test      ecx,ecx
0B8D    0F 86 FE FC FF FF         jbe       L$61

0B93                          L$74:
0B93    8B 15 00 00 00 00         mov       edx,long unsigned near void near DoMixing( long unsigned )::.0::channel
0B99    89 35 00 00 00 00         mov       long unsigned near void near DoMixing( long unsigned )::.0::Fraction,esi
0B9F    31 C0                     xor       eax,eax
0BA1    89 3D 00 00 00 00         mov       long unsigned near void near DoMixing( long unsigned )::.0::EndPosition,edi
0BA7    8A 82 00 00 00 00         mov       al,char unsigned near ChannelActiv[][edx]
0BAD    89 2D 00 00 00 00         mov       long unsigned near void near DoMixing( long unsigned )::.0::Position,ebp
0BB3    83 F8 01                  cmp       eax,0x00000001
0BB6    0F 84 55 07 00 00         je        L$106
0BBC                          L$75:
0BBC    8B 2D 00 00 00 00         mov       ebp,long unsigned near void near DoMixing( long unsigned )::.0::Position
0BC2    8B 3D 00 00 00 00         mov       edi,long unsigned near void near DoMixing( long unsigned )::.0::EndPosition
0BC8    8B 35 00 00 00 00         mov       esi,long unsigned near void near DoMixing( long unsigned )::.0::Fraction
0BCE    8B 15 00 00 00 00         mov       edx,long unsigned near void near DoMixing( long unsigned )::.0::channel
0BD4    42                        inc       edx
0BD5    8B 0D 00 00 00 00         mov       ecx,long unsigned near ChannelLast
0BDB    89 15 00 00 00 00         mov       long unsigned near void near DoMixing( long unsigned )::.0::channel,edx
0BE1    39 CA                     cmp       edx,ecx
0BE3    72 AE                     jb        L$74
0BE5    E9 A7 FC FF FF            jmp       L$61

0BEA                          L$76:
0BEA    8B 80 00 00 00 00         mov       eax,long unsigned near ChannelSampleLength[][eax]
0BF0    A3 00 00 00 00            mov       long unsigned near void near DoMixing( long unsigned )::.0::Length,eax

0BF5    8B 04 24                  mov       eax,[esp]
0BF8    A3 00 00 00 00            mov       long unsigned near void near DoMixing( long unsigned )::.0::MixLengthRest,eax

0BFD    A1 00 00 00 00            mov       eax,long unsigned near MixerAddress
0C02    A3 00 00 00 00            mov       long unsigned near void near DoMixing( long unsigned )::.0::MixPosition,eax

0C07    A1 00 00 00 00            mov       eax,long unsigned near void near DoMixing( long unsigned )::.0::Length
0C0C    29 E8                     sub       eax,ebp
0C0E    A3 00 00 00 00            mov       long unsigned near void near DoMixing( long unsigned )::.0::LengthPosition,eax

0C13    B8 00 00 01 00            mov       eax,0x00010000
0C18    29 F0                     sub       eax,esi
0C1A    25 FF FF 00 00            and       eax,0x0000ffff
0C1F    A3 00 00 00 00            mov       long unsigned near void near DoMixing( long unsigned )::.0::LengthFraction,eax

0C24    74 06                     je        L$77

0C26    FF 0D 00 00 00 00         dec       dword ptr long unsigned near void near DoMixing( long unsigned )::.0::LengthPosition

0C2C                          L$77:
0C2C    8B 0D 00 00 00 00         mov       ecx,long near void near DoMixing( long unsigned )::.0::DeltaFraction
0C32    8B 1D 00 00 00 00         mov       ebx,long near void near DoMixing( long unsigned )::.0::DeltaPosition
0C38    8B 15 00 00 00 00         mov       edx,long unsigned near void near DoMixing( long unsigned )::.0::LengthFraction
0C3E    A1 00 00 00 00            mov       eax,long unsigned near void near DoMixing( long unsigned )::.0::LengthPosition
0C43    C1 E3 10                  shl       ebx,0x00000010
0C46    66 89 CB                  mov       bx,cx
0C49    89 D1                     mov       ecx,edx
0C4B    31 D2                     xor       edx,edx
0C4D    0F A4 C2 10               shld      edx,eax,0x00000010
0C51    C1 E0 10                  shl       eax,0x00000010
0C54    66 89 C8                  mov       ax,cx
0C57    F7 F3                     div       ebx
0C59    A3 00 00 00 00            mov       long unsigned volatile near Division,eax
0C5E    89 15 00 00 00 00         mov       long unsigned volatile near Div_Fraction,edx
0C64    A3 00 00 00 00            mov       long unsigned near void near DoMixing( long unsigned )::.0::counter,eax

0C69    83 3D 00 00 00 00 00      cmp       dword ptr long unsigned volatile near Div_Fraction,0x00000000
0C70    74 06                     je        L$78
0C72    40                        inc       eax
0C73    A3 00 00 00 00            mov       long unsigned near void near DoMixing( long unsigned )::.0::counter,eax

0C78                          L$78:
0C78    83 3D 00 00 00 00 01      cmp       dword ptr long unsigned near void near DoMixing( long unsigned )::.0::LengthPosition,0x00000001
0C7F    0F 82 C4 01 00 00         jb        L$84

0C85    8B 0D 00 00 00 00         mov       ecx,long near void near DoMixing( long unsigned )::.0::DeltaFraction
0C8B    8B 1D 00 00 00 00         mov       ebx,long near void near DoMixing( long unsigned )::.0::DeltaPosition
0C91    A1 00 00 00 00            mov       eax,long unsigned near void near DoMixing( long unsigned )::.0::LengthPosition
0C96    8B 15 00 00 00 00         mov       edx,long unsigned near void near DoMixing( long unsigned )::.0::LengthFraction
0C9C    48                        dec       eax
0C9D    C1 E3 10                  shl       ebx,0x00000010
0CA0    66 89 CB                  mov       bx,cx
0CA3    89 D1                     mov       ecx,edx
0CA5    31 D2                     xor       edx,edx
0CA7    0F A4 C2 10               shld      edx,eax,0x00000010
0CAB    C1 E0 10                  shl       eax,0x00000010
0CAE    66 89 C8                  mov       ax,cx
0CB1    F7 F3                     div       ebx
0CB3    A3 00 00 00 00            mov       long unsigned volatile near Division,eax
0CB8    89 15 00 00 00 00         mov       long unsigned volatile near Div_Fraction,edx
0CBE                          L$79:
0CBE    A3 00 00 00 00            mov       long unsigned near void near DoMixing( long unsigned )::.0::counter1,eax
0CC3    A1 00 00 00 00            mov       eax,long unsigned near void near DoMixing( long unsigned )::.0::counter
0CC8    8B 15 00 00 00 00         mov       edx,long unsigned near void near DoMixing( long unsigned )::.0::counter1

0CCE    8B 2D 00 00 00 00         mov       ebp,long unsigned near void near DoMixing( long unsigned )::.0::Position
0CD4    29 D0                     sub       eax,edx
0CD6    8B 35 00 00 00 00         mov       esi,long unsigned near void near DoMixing( long unsigned )::.0::Fraction
0CDC    A3 00 00 00 00            mov       long unsigned near void near DoMixing( long unsigned )::.0::counter2,eax

0CE1    85 D2                     test      edx,edx
0CE3    74 79                     je        L$80

0CE5    8B 1D 00 00 00 00         mov       ebx,long unsigned near void near DoMixing( long unsigned )::.0::MixLengthRest
0CEB    39 DA                     cmp       edx,ebx
0CED    0F 87 5D 01 00 00         ja        L$85

0CF3    8B 1D 00 00 00 00         mov       ebx,long unsigned near void near DoMixing( long unsigned )::.0::MixPosition
0CF9    A1 00 00 00 00            mov       eax,long unsigned near void near DoMixing( long unsigned )::.0::channel

0CFE    89 15 00 00 00 00         mov       long unsigned near void near DoMixing( long unsigned )::.0::counter,edx
0D04    FF 15 00 00 00 00         call      dword ptr void (near * near MixRealIChannel)( long unsigned, long unsigned, long unsigned )

0D0A    A1 00 00 00 00            mov       eax,long unsigned near void near DoMixing( long unsigned )::.0::counter1
0D0F    8B 15 00 00 00 00         mov       edx,long unsigned near void near DoMixing( long unsigned )::.0::MixPosition

0D15    8B 0D 00 00 00 00         mov       ecx,long unsigned near void near DoMixing( long unsigned )::.0::MixLengthRest
0D1B    8B 1D 00 00 00 00         mov       ebx,long unsigned near void near DoMixing( long unsigned )::.0::counter
0D21    01 C2                     add       edx,eax
0D23    29 C1                     sub       ecx,eax

0D25    A1 00 00 00 00            mov       eax,long near void near DoMixing( long unsigned )::.0::DeltaFraction
0D2A    0F AF C3                  imul      eax,ebx
0D2D    8B 35 00 00 00 00         mov       esi,long unsigned near void near DoMixing( long unsigned )::.0::Fraction
0D33    01 C6                     add       esi,eax

0D35    A1 00 00 00 00            mov       eax,long near void near DoMixing( long unsigned )::.0::DeltaPosition
0D3A    0F AF C3                  imul      eax,ebx
0D3D    8B 2D 00 00 00 00         mov       ebp,long unsigned near void near DoMixing( long unsigned )::.0::Position
0D43    89 15 00 00 00 00         mov       long unsigned near void near DoMixing( long unsigned )::.0::MixPosition,edx
0D49    01 C5                     add       ebp,eax
0D4B    89 F0                     mov       eax,esi
0D4D    89 0D 00 00 00 00         mov       long unsigned near void near DoMixing( long unsigned )::.0::MixLengthRest,ecx
0D53    C1 E8 10                  shr       eax,0x00000010

0D56    81 E6 FF FF 00 00         and       esi,0x0000ffff
0D5C    01 C5                     add       ebp,eax

0D5E                          L$80:
0D5E    8B 0D 00 00 00 00         mov       ecx,long unsigned near void near DoMixing( long unsigned )::.0::MixLengthRest
0D64    89 35 00 00 00 00         mov       long unsigned near void near DoMixing( long unsigned )::.0::Fraction,esi
0D6A    89 2D 00 00 00 00         mov       long unsigned near void near DoMixing( long unsigned )::.0::Position,ebp
0D70    85 C9                     test      ecx,ecx
0D72    0F 84 44 FE FF FF         je        L$75

0D78    8B 1D 00 00 00 00         mov       ebx,long unsigned near void near DoMixing( long unsigned )::.0::counter2
0D7E    85 DB                     test      ebx,ebx
0D80    0F 84 36 FE FF FF         je        L$75

0D86    8B 3D 00 00 00 00         mov       edi,long unsigned near void near DoMixing( long unsigned )::.0::EndPosition
0D8C    39 CB                     cmp       ebx,ecx
0D8E    0F 86 F5 00 00 00         jbe       L$86

0D94    89 0D 00 00 00 00         mov       long unsigned near void near DoMixing( long unsigned )::.0::counter,ecx
0D9A    85 C9                     test      ecx,ecx
0D9C    0F 86 89 00 00 00         jbe       L$83

0DA2                          L$81:
0DA2    8B 15 00 00 00 00         mov       edx,long unsigned near void near DoMixing( long unsigned )::.0::Length

0DA8    8D 7D 01                  lea       edi,0x1[ebp]
0DAB    39 D7                     cmp       edi,edx
0DAD    72 03                     jb        L$82
0DAF    8D 7A FF                  lea       edi,-0x1[edx]

0DB2                          L$82:
0DB2    8B 1D 00 00 00 00         mov       ebx,long unsigned near void near DoMixing( long unsigned )::.0::MixPosition
0DB8    A1 00 00 00 00            mov       eax,long unsigned near void near DoMixing( long unsigned )::.0::channel
0DBD    89 F1                     mov       ecx,esi
0DBF    89 EA                     mov       edx,ebp
0DC1    89 35 00 00 00 00         mov       long unsigned near void near DoMixing( long unsigned )::.0::Fraction,esi
0DC7    89 3D 00 00 00 00         mov       long unsigned near void near DoMixing( long unsigned )::.0::EndPosition,edi
0DCD    53                        push      ebx
0DCE    89 FB                     mov       ebx,edi
0DD0    89 2D 00 00 00 00         mov       long unsigned near void near DoMixing( long unsigned )::.0::Position,ebp
0DD6    FF 15 00 00 00 00         call      dword ptr void (near * near MixRealICarry)( long unsigned, long unsigned, long unsigned, long unsigned, long unsigned )
0DDC    8B 2D 00 00 00 00         mov       ebp,long unsigned near void near DoMixing( long unsigned )::.0::Position
0DE2    8B 3D 00 00 00 00         mov       edi,long unsigned near void near DoMixing( long unsigned )::.0::EndPosition
0DE8    8B 35 00 00 00 00         mov       esi,long unsigned near void near DoMixing( long unsigned )::.0::Fraction

0DEE    A1 00 00 00 00            mov       eax,long near void near DoMixing( long unsigned )::.0::DeltaFraction

0DF3    8B 15 00 00 00 00         mov       edx,long unsigned near void near DoMixing( long unsigned )::.0::MixPosition

0DF9    8B 0D 00 00 00 00         mov       ecx,long unsigned near void near DoMixing( long unsigned )::.0::counter
0DFF    42                        inc       edx
0E00    49                        dec       ecx
0E01    01 C6                     add       esi,eax

0E03    A1 00 00 00 00            mov       eax,long near void near DoMixing( long unsigned )::.0::DeltaPosition
0E08    89 15 00 00 00 00         mov       long unsigned near void near DoMixing( long unsigned )::.0::MixPosition,edx
0E0E    01 E8                     add       eax,ebp
0E10    89 F5                     mov       ebp,esi
0E12    89 0D 00 00 00 00         mov       long unsigned near void near DoMixing( long unsigned )::.0::counter,ecx
0E18    C1 ED 10                  shr       ebp,0x00000010

0E1B    81 E6 FF FF 00 00         and       esi,0x0000ffff
0E21    01 C5                     add       ebp,eax

0E23    85 C9                     test      ecx,ecx
0E25    0F 87 77 FF FF FF         ja        L$81
0E2B                          L$83:
0E2B    89 35 00 00 00 00         mov       long unsigned near void near DoMixing( long unsigned )::.0::Fraction,esi
0E31    89 3D 00 00 00 00         mov       long unsigned near void near DoMixing( long unsigned )::.0::EndPosition,edi

0E37    31 C0                     xor       eax,eax
0E39    89 2D 00 00 00 00         mov       long unsigned near void near DoMixing( long unsigned )::.0::Position,ebp
0E3F    A3 00 00 00 00            mov       long unsigned near void near DoMixing( long unsigned )::.0::MixLengthRest,eax

0E44    E9 73 FD FF FF            jmp       L$75

0E49                          L$84:
0E49    31 C0                     xor       eax,eax
0E4B    E9 6E FE FF FF            jmp       L$79
0E50                          L$85:
0E50    A1 00 00 00 00            mov       eax,long unsigned near void near DoMixing( long unsigned )::.0::channel

0E55    89 DA                     mov       edx,ebx
0E57    89 1D 00 00 00 00         mov       long unsigned near void near DoMixing( long unsigned )::.0::counter,ebx

0E5D    8B 1D 00 00 00 00         mov       ebx,long unsigned near void near DoMixing( long unsigned )::.0::MixPosition
0E63    FF 15 00 00 00 00         call      dword ptr void (near * near MixRealIChannel)( long unsigned, long unsigned, long unsigned )

0E69    A1 00 00 00 00            mov       eax,long unsigned near void near DoMixing( long unsigned )::.0::counter
0E6E    8B 15 00 00 00 00         mov       edx,long unsigned near void near DoMixing( long unsigned )::.0::MixPosition

0E74    31 C9                     xor       ecx,ecx
0E76    01 C2                     add       edx,eax
0E78    89 0D 00 00 00 00         mov       long unsigned near void near DoMixing( long unsigned )::.0::MixLengthRest,ecx
0E7E    89 15 00 00 00 00         mov       long unsigned near void near DoMixing( long unsigned )::.0::MixPosition,edx

0E84    E9 33 FD FF FF            jmp       L$75

0E89                          L$86:
0E89    89 1D 00 00 00 00         mov       long unsigned near void near DoMixing( long unsigned )::.0::counter,ebx
0E8F    85 DB                     test      ebx,ebx
0E91    0F 86 89 00 00 00         jbe       L$89

0E97                          L$87:
0E97    8B 0D 00 00 00 00         mov       ecx,long unsigned near void near DoMixing( long unsigned )::.0::Length

0E9D    8D 7D 01                  lea       edi,0x1[ebp]
0EA0    39 CF                     cmp       edi,ecx
0EA2    72 03                     jb        L$88
0EA4    8D 79 FF                  lea       edi,-0x1[ecx]

0EA7                          L$88:
0EA7    8B 1D 00 00 00 00         mov       ebx,long unsigned near void near DoMixing( long unsigned )::.0::MixPosition
0EAD    A1 00 00 00 00            mov       eax,long unsigned near void near DoMixing( long unsigned )::.0::channel
0EB2    89 F1                     mov       ecx,esi
0EB4    89 EA                     mov       edx,ebp
0EB6    89 35 00 00 00 00         mov       long unsigned near void near DoMixing( long unsigned )::.0::Fraction,esi
0EBC    89 3D 00 00 00 00         mov       long unsigned near void near DoMixing( long unsigned )::.0::EndPosition,edi
0EC2    53                        push      ebx
0EC3    89 FB                     mov       ebx,edi
0EC5    89 2D 00 00 00 00         mov       long unsigned near void near DoMixing( long unsigned )::.0::Position,ebp
0ECB    FF 15 00 00 00 00         call      dword ptr void (near * near MixRealICarry)( long unsigned, long unsigned, long unsigned, long unsigned, long unsigned )
0ED1    8B 2D 00 00 00 00         mov       ebp,long unsigned near void near DoMixing( long unsigned )::.0::Position
0ED7    8B 3D 00 00 00 00         mov       edi,long unsigned near void near DoMixing( long unsigned )::.0::EndPosition
0EDD    8B 35 00 00 00 00         mov       esi,long unsigned near void near DoMixing( long unsigned )::.0::Fraction

0EE3    A1 00 00 00 00            mov       eax,long near void near DoMixing( long unsigned )::.0::DeltaFraction

0EE8    8B 15 00 00 00 00         mov       edx,long unsigned near void near DoMixing( long unsigned )::.0::MixPosition

0EEE    8B 0D 00 00 00 00         mov       ecx,long unsigned near void near DoMixing( long unsigned )::.0::counter
0EF4    42                        inc       edx
0EF5    49                        dec       ecx
0EF6    01 C6                     add       esi,eax

0EF8    A1 00 00 00 00            mov       eax,long near void near DoMixing( long unsigned )::.0::DeltaPosition
0EFD    89 15 00 00 00 00         mov       long unsigned near void near DoMixing( long unsigned )::.0::MixPosition,edx
0F03    01 E8                     add       eax,ebp
0F05    89 F5                     mov       ebp,esi
0F07    89 0D 00 00 00 00         mov       long unsigned near void near DoMixing( long unsigned )::.0::counter,ecx
0F0D    C1 ED 10                  shr       ebp,0x00000010

0F10    81 E6 FF FF 00 00         and       esi,0x0000ffff
0F16    01 C5                     add       ebp,eax

0F18    85 C9                     test      ecx,ecx
0F1A    0F 87 77 FF FF FF         ja        L$87

0F20                          L$89:
0F20    A1 00 00 00 00            mov       eax,long unsigned near void near DoMixing( long unsigned )::.0::counter2
0F25    8B 15 00 00 00 00         mov       edx,long unsigned near void near DoMixing( long unsigned )::.0::MixLengthRest
0F2B    89 35 00 00 00 00         mov       long unsigned near void near DoMixing( long unsigned )::.0::Fraction,esi
0F31    89 3D 00 00 00 00         mov       long unsigned near void near DoMixing( long unsigned )::.0::EndPosition,edi
0F37    29 C2                     sub       edx,eax
0F39    89 2D 00 00 00 00         mov       long unsigned near void near DoMixing( long unsigned )::.0::Position,ebp
0F3F    89 15 00 00 00 00         mov       long unsigned near void near DoMixing( long unsigned )::.0::MixLengthRest,edx

0F45    E9 72 FC FF FF            jmp       L$75

0F4A                          L$90:
0F4A    8B 90 00 00 00 00         mov       edx,long unsigned near ChannelLoopBegin[][eax]

0F50    8B 80 00 00 00 00         mov       eax,long unsigned near ChannelLoopEnd[][eax]
0F56    A3 00 00 00 00            mov       long unsigned near void near DoMixing( long unsigned )::.0::LoopEnd,eax

0F5B    8B 04 24                  mov       eax,[esp]
0F5E    8B 1C 24                  mov       ebx,[esp]
0F61    A3 00 00 00 00            mov       long unsigned near void near DoMixing( long unsigned )::.0::MixLengthRest,eax

0F66    A1 00 00 00 00            mov       eax,long unsigned near MixerAddress
0F6B    89 15 00 00 00 00         mov       long unsigned near void near DoMixing( long unsigned )::.0::LoopBegin,edx
0F71    A3 00 00 00 00            mov       long unsigned near void near DoMixing( long unsigned )::.0::MixPosition,eax
0F76    85 DB                     test      ebx,ebx
0F78    0F 86 3E FC FF FF         jbe       L$75

0F7E                          L$91:
0F7E    A1 00 00 00 00            mov       eax,long unsigned near void near DoMixing( long unsigned )::.0::LoopEnd
0F83    8B 2D 00 00 00 00         mov       ebp,long unsigned near void near DoMixing( long unsigned )::.0::Position
0F89    29 E8                     sub       eax,ebp

0F8B    8B 35 00 00 00 00         mov       esi,long unsigned near void near DoMixing( long unsigned )::.0::Fraction
0F91    A3 00 00 00 00            mov       long unsigned near void near DoMixing( long unsigned )::.0::LengthPosition,eax
0F96    B8 00 00 01 00            mov       eax,0x00010000
0F9B    29 F0                     sub       eax,esi
0F9D    25 FF FF 00 00            and       eax,0x0000ffff
0FA2    A3 00 00 00 00            mov       long unsigned near void near DoMixing( long unsigned )::.0::LengthFraction,eax

0FA7    85 C0                     test      eax,eax
0FA9    76 06                     jbe       L$92

0FAB    FF 0D 00 00 00 00         dec       dword ptr long unsigned near void near DoMixing( long unsigned )::.0::LengthPosition

0FB1                          L$92:
0FB1    8B 0D 00 00 00 00         mov       ecx,long near void near DoMixing( long unsigned )::.0::DeltaFraction
0FB7    8B 1D 00 00 00 00         mov       ebx,long near void near DoMixing( long unsigned )::.0::DeltaPosition
0FBD    8B 15 00 00 00 00         mov       edx,long unsigned near void near DoMixing( long unsigned )::.0::LengthFraction
0FC3    A1 00 00 00 00            mov       eax,long unsigned near void near DoMixing( long unsigned )::.0::LengthPosition
0FC8    C1 E3 10                  shl       ebx,0x00000010
0FCB    66 89 CB                  mov       bx,cx
0FCE    89 D1                     mov       ecx,edx
0FD0    31 D2                     xor       edx,edx
0FD2    0F A4 C2 10               shld      edx,eax,0x00000010
0FD6    C1 E0 10                  shl       eax,0x00000010
0FD9    66 89 C8                  mov       ax,cx
0FDC    F7 F3                     div       ebx
0FDE    A3 00 00 00 00            mov       long unsigned volatile near Division,eax
0FE3    89 15 00 00 00 00         mov       long unsigned volatile near Div_Fraction,edx
0FE9    A3 00 00 00 00            mov       long unsigned near void near DoMixing( long unsigned )::.0::counter,eax

0FEE    83 3D 00 00 00 00 00      cmp       dword ptr long unsigned volatile near Div_Fraction,0x00000000
0FF5    74 06                     je        L$93
0FF7    40                        inc       eax
0FF8    A3 00 00 00 00            mov       long unsigned near void near DoMixing( long unsigned )::.0::counter,eax

0FFD                          L$93:
0FFD    83 3D 00 00 00 00 01      cmp       dword ptr long unsigned near void near DoMixing( long unsigned )::.0::LengthPosition,0x00000001
1004    0F 82 BB 01 00 00         jb        L$100

100A    8B 0D 00 00 00 00         mov       ecx,long near void near DoMixing( long unsigned )::.0::DeltaFraction
1010    8B 1D 00 00 00 00         mov       ebx,long near void near DoMixing( long unsigned )::.0::DeltaPosition
1016    A1 00 00 00 00            mov       eax,long unsigned near void near DoMixing( long unsigned )::.0::LengthPosition
101B    8B 15 00 00 00 00         mov       edx,long unsigned near void near DoMixing( long unsigned )::.0::LengthFraction
1021    48                        dec       eax
1022    C1 E3 10                  shl       ebx,0x00000010
1025    66 89 CB                  mov       bx,cx
1028    89 D1                     mov       ecx,edx
102A    31 D2                     xor       edx,edx
102C    0F A4 C2 10               shld      edx,eax,0x00000010
1030    C1 E0 10                  shl       eax,0x00000010
1033    66 89 C8                  mov       ax,cx
1036    F7 F3                     div       ebx
1038    A3 00 00 00 00            mov       long unsigned volatile near Division,eax
103D    89 15 00 00 00 00         mov       long unsigned volatile near Div_Fraction,edx
1043    A3 00 00 00 00            mov       long unsigned near void near DoMixing( long unsigned )::.0::counter1,eax

1048                          L$94:
1048    A1 00 00 00 00            mov       eax,long unsigned near void near DoMixing( long unsigned )::.0::counter
104D    8B 15 00 00 00 00         mov       edx,long unsigned near void near DoMixing( long unsigned )::.0::counter1
1053    29 D0                     sub       eax,edx
1055    A3 00 00 00 00            mov       long unsigned near void near DoMixing( long unsigned )::.0::counter2,eax

105A    85 D2                     test      edx,edx
105C    74 42                     je        L$95

105E    8B 1D 00 00 00 00         mov       ebx,long unsigned near void near DoMixing( long unsigned )::.0::MixLengthRest
1064    39 DA                     cmp       edx,ebx
1066    0F 86 66 01 00 00         jbe       L$101
106C    A1 00 00 00 00            mov       eax,long unsigned near void near DoMixing( long unsigned )::.0::channel

1071    89 DA                     mov       edx,ebx
1073    89 1D 00 00 00 00         mov       long unsigned near void near DoMixing( long unsigned )::.0::counter,ebx

1079    8B 1D 00 00 00 00         mov       ebx,long unsigned near void near DoMixing( long unsigned )::.0::MixPosition
107F    FF 15 00 00 00 00         call      dword ptr void (near * near MixRealIChannel)( long unsigned, long unsigned, long unsigned )

1085    A1 00 00 00 00            mov       eax,long unsigned near void near DoMixing( long unsigned )::.0::counter
108A    8B 15 00 00 00 00         mov       edx,long unsigned near void near DoMixing( long unsigned )::.0::MixPosition

1090    31 C9                     xor       ecx,ecx
1092    01 C2                     add       edx,eax
1094    89 0D 00 00 00 00         mov       long unsigned near void near DoMixing( long unsigned )::.0::MixLengthRest,ecx
109A    89 15 00 00 00 00         mov       long unsigned near void near DoMixing( long unsigned )::.0::MixPosition,edx

10A0                          L$95:
10A0    A1 00 00 00 00            mov       eax,long unsigned near void near DoMixing( long unsigned )::.0::channel
10A5    8B 2D 00 00 00 00         mov       ebp,long unsigned near void near DoMixing( long unsigned )::.0::Position

10AB    8B 35 00 00 00 00         mov       esi,long unsigned near void near DoMixing( long unsigned )::.0::Fraction

10B1    8B 1D 00 00 00 00         mov       ebx,long unsigned near void near DoMixing( long unsigned )::.0::MixLengthRest
10B7    89 2C 85 00 00 00 00      mov       long unsigned near ChannelSamplePosition[][eax*4],ebp
10BE    89 34 85 00 00 00 00      mov       long unsigned near ChannelSampleFraction[][eax*4],esi
10C5    85 DB                     test      ebx,ebx
10C7    0F 84 EF FA FF FF         je        L$75
10CD    A1 00 00 00 00            mov       eax,long unsigned near void near DoMixing( long unsigned )::.0::counter2

10D2    8B 3D 00 00 00 00         mov       edi,long unsigned near void near DoMixing( long unsigned )::.0::EndPosition
10D8    85 C0                     test      eax,eax
10DA    0F 84 AD 00 00 00         je        L$99

10E0    39 D8                     cmp       eax,ebx
10E2    0F 86 62 01 00 00         jbe       L$102

10E8    89 1D 00 00 00 00         mov       long unsigned near void near DoMixing( long unsigned )::.0::counter,ebx
10EE    85 DB                     test      ebx,ebx
10F0    0F 86 8F 00 00 00         jbe       L$98

10F6                          L$96:
10F6    8B 1D 00 00 00 00         mov       ebx,long unsigned near void near DoMixing( long unsigned )::.0::LoopEnd

10FC    8D 7D 01                  lea       edi,0x1[ebp]
10FF    39 DF                     cmp       edi,ebx
1101    72 09                     jb        L$97
1103    A1 00 00 00 00            mov       eax,long unsigned near void near DoMixing( long unsigned )::.0::LoopBegin
1108    29 DF                     sub       edi,ebx
110A    01 C7                     add       edi,eax

110C                          L$97:
110C    8B 15 00 00 00 00         mov       edx,long unsigned near void near DoMixing( long unsigned )::.0::MixPosition
1112    A1 00 00 00 00            mov       eax,long unsigned near void near DoMixing( long unsigned )::.0::channel
1117    89 F1                     mov       ecx,esi
1119    89 FB                     mov       ebx,edi
111B    89 35 00 00 00 00         mov       long unsigned near void near DoMixing( long unsigned )::.0::Fraction,esi
1121    89 3D 00 00 00 00         mov       long unsigned near void near DoMixing( long unsigned )::.0::EndPosition,edi
1127    52                        push      edx
1128    89 EA                     mov       edx,ebp
112A    89 2D 00 00 00 00         mov       long unsigned near void near DoMixing( long unsigned )::.0::Position,ebp
1130    FF 15 00 00 00 00         call      dword ptr void (near * near MixRealICarry)( long unsigned, long unsigned, long unsigned, long unsigned, long unsigned )
1136    8B 2D 00 00 00 00         mov       ebp,long unsigned near void near DoMixing( long unsigned )::.0::Position
113C    8B 35 00 00 00 00         mov       esi,long unsigned near void near DoMixing( long unsigned )::.0::Fraction

1142    A1 00 00 00 00            mov       eax,long near void near DoMixing( long unsigned )::.0::DeltaFraction

1147    8B 0D 00 00 00 00         mov       ecx,long near void near DoMixing( long unsigned )::.0::DeltaPosition
114D    01 C6                     add       esi,eax
114F    8D 04 29                  lea       eax,[ecx+ebp]
1152    8B 3D 00 00 00 00         mov       edi,long unsigned near void near DoMixing( long unsigned )::.0::EndPosition
1158    89 F5                     mov       ebp,esi

115A    8B 1D 00 00 00 00         mov       ebx,long unsigned near void near DoMixing( long unsigned )::.0::MixPosition
1160    C1 ED 10                  shr       ebp,0x00000010
1163    43                        inc       ebx
1164    01 C5                     add       ebp,eax

1166    A1 00 00 00 00            mov       eax,long unsigned near void near DoMixing( long unsigned )::.0::counter
116B    89 1D 00 00 00 00         mov       long unsigned near void near DoMixing( long unsigned )::.0::MixPosition,ebx
1171    48                        dec       eax

1172    81 E6 FF FF 00 00         and       esi,0x0000ffff
1178    A3 00 00 00 00            mov       long unsigned near void near DoMixing( long unsigned )::.0::counter,eax

117D    85 C0                     test      eax,eax
117F    0F 87 71 FF FF FF         ja        L$96

1185                          L$98:
1185    31 C9                     xor       ecx,ecx
1187    89 0D 00 00 00 00         mov       long unsigned near void near DoMixing( long unsigned )::.0::MixLengthRest,ecx

118D                          L$99:
118D    A1 00 00 00 00            mov       eax,long unsigned near void near DoMixing( long unsigned )::.0::channel

1192    8B 0D 00 00 00 00         mov       ecx,long unsigned near void near DoMixing( long unsigned )::.0::MixLengthRest
1198    89 35 00 00 00 00         mov       long unsigned near void near DoMixing( long unsigned )::.0::Fraction,esi
119E    89 3D 00 00 00 00         mov       long unsigned near void near DoMixing( long unsigned )::.0::EndPosition,edi
11A4    89 2D 00 00 00 00         mov       long unsigned near void near DoMixing( long unsigned )::.0::Position,ebp
11AA    89 2C 85 00 00 00 00      mov       long unsigned near ChannelSamplePosition[][eax*4],ebp

11B1    89 34 85 00 00 00 00      mov       long unsigned near ChannelSampleFraction[][eax*4],esi
11B8    85 C9                     test      ecx,ecx
11BA    0F 87 BE FD FF FF         ja        L$91
11C0    E9 F7 F9 FF FF            jmp       L$75

11C5                          L$100:
11C5    31 DB                     xor       ebx,ebx
11C7    89 1D 00 00 00 00         mov       long unsigned near void near DoMixing( long unsigned )::.0::counter1,ebx
11CD    E9 76 FE FF FF            jmp       L$94
11D2                          L$101:
11D2    A1 00 00 00 00            mov       eax,long unsigned near void near DoMixing( long unsigned )::.0::channel

11D7    89 DE                     mov       esi,ebx

11D9    89 15 00 00 00 00         mov       long unsigned near void near DoMixing( long unsigned )::.0::counter,edx
11DF    29 D6                     sub       esi,edx

11E1    8B 1D 00 00 00 00         mov       ebx,long unsigned near void near DoMixing( long unsigned )::.0::MixPosition
11E7    89 35 00 00 00 00         mov       long unsigned near void near DoMixing( long unsigned )::.0::MixLengthRest,esi
11ED    FF 15 00 00 00 00         call      dword ptr void (near * near MixRealIChannel)( long unsigned, long unsigned, long unsigned )

11F3    A1 00 00 00 00            mov       eax,long unsigned near void near DoMixing( long unsigned )::.0::counter
11F8    8B 15 00 00 00 00         mov       edx,long unsigned near void near DoMixing( long unsigned )::.0::MixPosition
11FE    8B 0D 00 00 00 00         mov       ecx,long unsigned near void near DoMixing( long unsigned )::.0::counter
1204    01 C2                     add       edx,eax

1206    A1 00 00 00 00            mov       eax,long near void near DoMixing( long unsigned )::.0::DeltaFraction
120B    0F AF C1                  imul      eax,ecx
120E    8B 35 00 00 00 00         mov       esi,long unsigned near void near DoMixing( long unsigned )::.0::Fraction
1214    01 C6                     add       esi,eax

1216    A1 00 00 00 00            mov       eax,long near void near DoMixing( long unsigned )::.0::DeltaPosition
121B    0F AF C1                  imul      eax,ecx
121E    8B 2D 00 00 00 00         mov       ebp,long unsigned near void near DoMixing( long unsigned )::.0::Position
1224    01 E8                     add       eax,ebp
1226    89 F5                     mov       ebp,esi
1228    89 15 00 00 00 00         mov       long unsigned near void near DoMixing( long unsigned )::.0::MixPosition,edx
122E    C1 ED 10                  shr       ebp,0x00000010

1231    81 E6 FF FF 00 00         and       esi,0x0000ffff
1237    01 C5                     add       ebp,eax
1239    89 35 00 00 00 00         mov       long unsigned near void near DoMixing( long unsigned )::.0::Fraction,esi
123F    89 2D 00 00 00 00         mov       long unsigned near void near DoMixing( long unsigned )::.0::Position,ebp

1245    E9 56 FE FF FF            jmp       L$95

124A                          L$102:
124A    A3 00 00 00 00            mov       long unsigned near void near DoMixing( long unsigned )::.0::counter,eax
124F    85 C0                     test      eax,eax
1251    0F 86 90 00 00 00         jbe       L$105

1257                          L$103:
1257    8B 1D 00 00 00 00         mov       ebx,long unsigned near void near DoMixing( long unsigned )::.0::LoopEnd

125D    8D 7D 01                  lea       edi,0x1[ebp]
1260    39 DF                     cmp       edi,ebx
1262    72 09                     jb        L$104
1264    A1 00 00 00 00            mov       eax,long unsigned near void near DoMixing( long unsigned )::.0::LoopBegin
1269    29 DF                     sub       edi,ebx
126B    01 C7                     add       edi,eax

126D                          L$104:
126D    A1 00 00 00 00            mov       eax,long unsigned near void near DoMixing( long unsigned )::.0::MixPosition
1272    89 F1                     mov       ecx,esi
1274    89 FB                     mov       ebx,edi
1276    89 EA                     mov       edx,ebp
1278    89 35 00 00 00 00         mov       long unsigned near void near DoMixing( long unsigned )::.0::Fraction,esi
127E    89 3D 00 00 00 00         mov       long unsigned near void near DoMixing( long unsigned )::.0::EndPosition,edi
1284    50                        push      eax
1285    A1 00 00 00 00            mov       eax,long unsigned near void near DoMixing( long unsigned )::.0::channel
128A    89 2D 00 00 00 00         mov       long unsigned near void near DoMixing( long unsigned )::.0::Position,ebp
1290    FF 15 00 00 00 00         call      dword ptr void (near * near MixRealICarry)( long unsigned, long unsigned, long unsigned, long unsigned, long unsigned )
1296    8B 2D 00 00 00 00         mov       ebp,long unsigned near void near DoMixing( long unsigned )::.0::Position
129C    8B 3D 00 00 00 00         mov       edi,long unsigned near void near DoMixing( long unsigned )::.0::EndPosition
12A2    8B 35 00 00 00 00         mov       esi,long unsigned near void near DoMixing( long unsigned )::.0::Fraction

12A8    A1 00 00 00 00            mov       eax,long near void near DoMixing( long unsigned )::.0::DeltaFraction

12AD    8B 15 00 00 00 00         mov       edx,long near void near DoMixing( long unsigned )::.0::DeltaPosition

12B3    8B 0D 00 00 00 00         mov       ecx,long unsigned near void near DoMixing( long unsigned )::.0::MixPosition

12B9    8B 1D 00 00 00 00         mov       ebx,long unsigned near void near DoMixing( long unsigned )::.0::counter
12BF    41                        inc       ecx
12C0    4B                        dec       ebx
12C1    01 C6                     add       esi,eax
12C3    8D 04 2A                  lea       eax,[edx+ebp]
12C6    89 0D 00 00 00 00         mov       long unsigned near void near DoMixing( long unsigned )::.0::MixPosition,ecx
12CC    89 F5                     mov       ebp,esi
12CE    89 1D 00 00 00 00         mov       long unsigned near void near DoMixing( long unsigned )::.0::counter,ebx
12D4    C1 ED 10                  shr       ebp,0x00000010

12D7    81 E6 FF FF 00 00         and       esi,0x0000ffff
12DD    01 C5                     add       ebp,eax

12DF    85 DB                     test      ebx,ebx
12E1    0F 87 70 FF FF FF         ja        L$103

12E7                          L$105:
12E7    A1 00 00 00 00            mov       eax,long unsigned near void near DoMixing( long unsigned )::.0::counter2
12EC    8B 15 00 00 00 00         mov       edx,long unsigned near void near DoMixing( long unsigned )::.0::MixLengthRest

12F2    8B 0D 00 00 00 00         mov       ecx,long unsigned near void near DoMixing( long unsigned )::.0::LoopEnd
12F8    29 C2                     sub       edx,eax
12FA    89 E8                     mov       eax,ebp
12FC    8B 2D 00 00 00 00         mov       ebp,long unsigned near void near DoMixing( long unsigned )::.0::LoopBegin
1302    29 C8                     sub       eax,ecx
1304    89 15 00 00 00 00         mov       long unsigned near void near DoMixing( long unsigned )::.0::MixLengthRest,edx
130A    01 C5                     add       ebp,eax

130C    E9 7C FE FF FF            jmp       L$99

1311                          L$106:
1311    8D 04 95 00 00 00 00      lea       eax,[edx*4]
1318    8B 88 00 00 00 00         mov       ecx,long near DeltaSamplePosition[][eax]

131E    8B A8 00 00 00 00         mov       ebp,long unsigned near ChannelSamplePosition[][eax]

1324    8B B0 00 00 00 00         mov       esi,long unsigned near ChannelSampleFraction[][eax]

132A    8A 92 00 00 00 00         mov       dl,char unsigned near ChannelLoopMode[][edx]
1330    89 0D 00 00 00 00         mov       long near void near DoMixing( long unsigned )::.0::DeltaPosition,ecx
1336    89 2D 00 00 00 00         mov       long unsigned near void near DoMixing( long unsigned )::.0::Position,ebp

133C    8B 88 00 00 00 00         mov       ecx,long near DeltaSampleFraction[][eax]
1342    89 35 00 00 00 00         mov       long unsigned near void near DoMixing( long unsigned )::.0::Fraction,esi
1348    89 0D 00 00 00 00         mov       long near void near DoMixing( long unsigned )::.0::DeltaFraction,ecx
134E    80 FA 03                  cmp       dl,0x03
1351    0F 87 65 F8 FF FF         ja        L$75
1357    81 E2 FF 00 00 00         and       edx,0x000000ff
135D    FF 24 95 F4 07 00 00      jmp       dword ptr L$58[edx*4]




static void Mix16Channel ( unsigned long channel, unsigned long counter, unsigned long MixPosition )
1364                          void near Mix16Channel( long unsigned, long unsigned, long unsigned ):
1364    51                        push      ecx
1365    56                        push      esi
1366    57                        push      edi
1367    55                        push      ebp

{
 static unsigned long Volume, VolumeLeft, VolumeRight;
 static unsigned long VolTable, VolLeftTable, VolRightTable;
 static unsigned long FracCounter, SampleAddress;
 static unsigned long BlockAddress;

 if ( counter == 0 )  return;
1368    85 D2                     test      edx,edx
136A    0F 84 BE 00 00 00         je        L$107


 Volume = ( ChannelVolume[channel] * GlobalVolume + 128 ) >> 8;
1370    8D 3C 85 00 00 00 00      lea       edi,[eax*4]
1377    8B 35 00 00 00 00         mov       esi,long unsigned near GlobalVolume
137D    8B 8F 00 00 00 00         mov       ecx,long unsigned near ChannelVolume[][edi]
1383    0F AF CE                  imul      ecx,esi
1386    81 C1 80 00 00 00         add       ecx,0x00000080
138C    C1 E9 08                  shr       ecx,0x00000008
138F    89 0D 00 00 00 00         mov       long unsigned near void near Mix16Channel( long unsigned, long unsigned, long unsigned )::.0::Volume,ecx


 if ( Volume != 0 )
1395    85 C9                     test      ecx,ecx
1397    0F 84 91 00 00 00         je        L$107

    {
     if ( flag_stereo == 0 )    // mono sample
139D    31 C9                     xor       ecx,ecx
139F    8A 0D 00 00 00 00         mov       cl,char unsigned near flag_stereo
13A5    85 C9                     test      ecx,ecx
13A7    0F 85 CA 00 00 00         jne       L$109

        {
         BlockAddress = (unsigned long)(MixerBlock+(MixPosition << 1)+(counter << 1));
13AD    8D 0C 1B                  lea       ecx,[ebx+ebx]
13B0    8D 34 12                  lea       esi,[edx+edx]


         FracCounter = (unsigned long)ChannelSampleFraction[channel] << 16;

         if ( ChannelSampleBits[channel] == 8 )
13B3    8A 80 00 00 00 00         mov       al,char unsigned near ChannelSampleBits[][eax]
13B9    8B 1D 00 00 00 00         mov       ebx,char near * near MixerBlock

13BF    8B 97 00 00 00 00         mov       edx,long unsigned near ChannelSampleFraction[][edi]
13C5    01 D9                     add       ecx,ebx
13C7    C1 E2 10                  shl       edx,0x00000010
13CA    01 F1                     add       ecx,esi
13CC    89 15 00 00 00 00         mov       long unsigned near void near Mix16Channel( long unsigned, long unsigned, long unsigned )::.0::FracCounter,edx
13D2    89 0D 00 00 00 00         mov       long unsigned near void near Mix16Channel( long unsigned, long unsigned, long unsigned )::.0::BlockAddress,ecx
13D8    25 FF 00 00 00            and       eax,0x000000ff
13DD    83 F8 08                  cmp       eax,0x00000008
13E0    75 51                     jne       L$108

            {
             VolTable = (unsigned long)( Voltable8 + ((unsigned long)Volume << 9 ) );
13E2    8B 15 00 00 00 00         mov       edx,long unsigned near void near Mix16Channel( long unsigned, long unsigned, long unsigned )::.0::Volume
13E8    A1 00 00 00 00            mov       eax,char near * near Voltable8
13ED    C1 E2 09                  shl       edx,0x00000009
13F0    8B 9F 00 00 00 00         mov       ebx,long near DeltaSampleFraction[][edi]
13F6    01 D0                     add       eax,edx

             setup8Mto16M ( VolTable, DeltaSamplePosition[channel], DeltaSampleFraction[channel], BlockAddress );
13F8    89 CA                     mov       edx,ecx
13FA    8B 8F 00 00 00 00         mov       ecx,long near DeltaSamplePosition[][edi]
1400    A3 00 00 00 00            mov       long unsigned near void near Mix16Channel( long unsigned, long unsigned, long unsigned )::.0::VolTable,eax
1405    E8 00 00 00 00            call      setup8Mto16M_

             SampleAddress = (unsigned long)(ChannelSampleAddress[channel] + ChannelSamplePosition[channel]);
140A    8B 87 00 00 00 00         mov       eax,long unsigned near ChannelSampleAddress[][edi]
1410    8B 8F 00 00 00 00         mov       ecx,long unsigned near ChannelSamplePosition[][edi]

             mix8Mto16M ( FracCounter, SampleAddress, -(counter << 1) );
1416    89 F7                     mov       edi,esi
1418    01 C8                     add       eax,ecx
141A    8B 0D 00 00 00 00         mov       ecx,long unsigned near void near Mix16Channel( long unsigned, long unsigned, long unsigned )::.0::FracCounter
1420    F7 DF                     neg       edi
1422    89 C6                     mov       esi,eax
1424    A3 00 00 00 00            mov       long unsigned near void near Mix16Channel( long unsigned, long unsigned, long unsigned )::.0::SampleAddress,eax
1429    E8 00 00 00 00            call      mix8Mto16M_

            }
         else    // 16bit sample
            {
             setup16Mto16M ( Volume, DeltaSamplePosition[channel], DeltaSampleFraction[channel], BlockAddress );
             SampleAddress = (unsigned long)( (ChannelSampleAddress[channel] >> 1) + ChannelSamplePosition[channel]);
             mix16Mto16M ( FracCounter, SampleAddress, -(counter << 1) );
            }
        }
     else   // stereo
        {
         VolumeLeft = ( ChannelVolumeLeft[channel] * GlobalVolume + 128 ) >> 8;
         VolumeRight = ( ChannelVolumeRight[channel] * GlobalVolume + 128 ) >> 8;

         BlockAddress = (unsigned long)(MixerBlock+(MixPosition << 2)+(counter << 2) );

         FracCounter = (unsigned long)ChannelSampleFraction[channel] << 16;

         if ( ChannelSampleBits[channel] == 8 )
            {
             VolLeftTable = (unsigned long)( Voltable8 + ((unsigned long)VolumeLeft << 9 ) );
             VolRightTable = (unsigned long)( Voltable8 + ((unsigned long)VolumeRight << 9 ) );
             setup8Mto16S ( VolLeftTable, VolRightTable, DeltaSamplePosition[channel], DeltaSampleFraction[channel], BlockAddress );
             SampleAddress = (unsigned long)(ChannelSampleAddress[channel] + ChannelSamplePosition[channel]);
             mix8Mto16S ( FracCounter, SampleAddress, -(counter << 2) );
            }
         else   // 16bit sample
            {
             setup16Mto16S ( VolumeLeft, VolumeRight, DeltaSamplePosition[channel], DeltaSampleFraction[channel], BlockAddress );
             SampleAddress = (unsigned long)( (ChannelSampleAddress[channel] >> 1) + ChannelSamplePosition[channel]);
             mix16Mto16S ( FracCounter, SampleAddress, -(counter << 2) );
            }
        }  // end stereo
    }  // end if silence
}
142E                          L$107:
142E    5D                        pop       ebp
142F    5F                        pop       edi
1430    5E                        pop       esi
1431    59                        pop       ecx
1432    C3                        ret       
1433                          L$108:
1433    A1 00 00 00 00            mov       eax,long unsigned near void near Mix16Channel( long unsigned, long unsigned, long unsigned )::.0::Volume

1438    89 CA                     mov       edx,ecx
143A    8B 9F 00 00 00 00         mov       ebx,long near DeltaSampleFraction[][edi]
1440    8B 8F 00 00 00 00         mov       ecx,long near DeltaSamplePosition[][edi]
1446    E8 00 00 00 00            call      setup16Mto16M_
144B    8B 0D 00 00 00 00         mov       ecx,long unsigned near void near Mix16Channel( long unsigned, long unsigned, long unsigned )::.0::FracCounter

1451    8B 97 00 00 00 00         mov       edx,long unsigned near ChannelSampleAddress[][edi]
1457    8B 87 00 00 00 00         mov       eax,long unsigned near ChannelSamplePosition[][edi]
145D    D1 EA                     shr       edx,0x00000001

145F    89 F7                     mov       edi,esi
1461    01 C2                     add       edx,eax
1463    F7 DF                     neg       edi
1465    89 D6                     mov       esi,edx
1467    89 15 00 00 00 00         mov       long unsigned near void near Mix16Channel( long unsigned, long unsigned, long unsigned )::.0::SampleAddress,edx
146D    E8 00 00 00 00            call      mix16Mto16M_
1472    5D                        pop       ebp
1473    5F                        pop       edi
1474    5E                        pop       esi
1475    59                        pop       ecx
1476    C3                        ret       

1477                          L$109:
1477    8B 8F 00 00 00 00         mov       ecx,long unsigned near ChannelVolumeLeft[][edi]
147D    0F AF CE                  imul      ecx,esi
1480    81 C1 80 00 00 00         add       ecx,0x00000080
1486    C1 E9 08                  shr       ecx,0x00000008
1489    89 0D 00 00 00 00         mov       long unsigned near void near Mix16Channel( long unsigned, long unsigned, long unsigned )::.0::VolumeLeft,ecx

148F    8B 8F 00 00 00 00         mov       ecx,long unsigned near ChannelVolumeRight[][edi]
1495    0F AF CE                  imul      ecx,esi
1498    81 C1 80 00 00 00         add       ecx,0x00000080
149E    C1 E9 08                  shr       ecx,0x00000008
14A1    8D 2C 95 00 00 00 00      lea       ebp,[edx*4]
14A8    89 0D 00 00 00 00         mov       long unsigned near void near Mix16Channel( long unsigned, long unsigned, long unsigned )::.0::VolumeRight,ecx

14AE    8D 0C 9D 00 00 00 00      lea       ecx,[ebx*4]

14B5    8A 80 00 00 00 00         mov       al,char unsigned near ChannelSampleBits[][eax]
14BB    8B 1D 00 00 00 00         mov       ebx,char near * near MixerBlock

14C1    8B 97 00 00 00 00         mov       edx,long unsigned near ChannelSampleFraction[][edi]
14C7    01 D9                     add       ecx,ebx
14C9    C1 E2 10                  shl       edx,0x00000010
14CC    01 E9                     add       ecx,ebp
14CE    89 15 00 00 00 00         mov       long unsigned near void near Mix16Channel( long unsigned, long unsigned, long unsigned )::.0::FracCounter,edx
14D4    89 0D 00 00 00 00         mov       long unsigned near void near Mix16Channel( long unsigned, long unsigned, long unsigned )::.0::BlockAddress,ecx
14DA    25 FF 00 00 00            and       eax,0x000000ff
14DF    83 F8 08                  cmp       eax,0x00000008
14E2    75 6E                     jne       L$110

14E4    8B 15 00 00 00 00         mov       edx,long unsigned near void near Mix16Channel( long unsigned, long unsigned, long unsigned )::.0::VolumeLeft
14EA    A1 00 00 00 00            mov       eax,char near * near Voltable8
14EF    C1 E2 09                  shl       edx,0x00000009
14F2    8D 0C 10                  lea       ecx,[eax+edx]

14F5    8B 15 00 00 00 00         mov       edx,long unsigned near void near Mix16Channel( long unsigned, long unsigned, long unsigned )::.0::VolumeRight

14FB    8B 35 00 00 00 00         mov       esi,long unsigned near void near Mix16Channel( long unsigned, long unsigned, long unsigned )::.0::BlockAddress
1501    C1 E2 09                  shl       edx,0x00000009
1504    89 0D 00 00 00 00         mov       long unsigned near void near Mix16Channel( long unsigned, long unsigned, long unsigned )::.0::VolLeftTable,ecx
150A    01 D0                     add       eax,edx
150C    8B 8F 00 00 00 00         mov       ecx,long near DeltaSampleFraction[][edi]
1512    A3 00 00 00 00            mov       long unsigned near void near Mix16Channel( long unsigned, long unsigned, long unsigned )::.0::VolRightTable,eax
1517    89 C3                     mov       ebx,eax
1519    8B 97 00 00 00 00         mov       edx,long near DeltaSamplePosition[][edi]
151F    A1 00 00 00 00            mov       eax,long unsigned near void near Mix16Channel( long unsigned, long unsigned, long unsigned )::.0::VolLeftTable
1524    E8 00 00 00 00            call      setup8Mto16S_
1529    8B 0D 00 00 00 00         mov       ecx,long unsigned near void near Mix16Channel( long unsigned, long unsigned, long unsigned )::.0::FracCounter

152F    8B 87 00 00 00 00         mov       eax,long unsigned near ChannelSampleAddress[][edi]
1535    8B 97 00 00 00 00         mov       edx,long unsigned near ChannelSamplePosition[][edi]

153B    89 EF                     mov       edi,ebp
153D    01 D0                     add       eax,edx
153F    F7 DF                     neg       edi
1541    89 C6                     mov       esi,eax
1543    A3 00 00 00 00            mov       long unsigned near void near Mix16Channel( long unsigned, long unsigned, long unsigned )::.0::SampleAddress,eax
1548    E8 00 00 00 00            call      mix8Mto16S_
154D    5D                        pop       ebp
154E    5F                        pop       edi
154F    5E                        pop       esi
1550    59                        pop       ecx
1551    C3                        ret       

1552                          L$110:
1552    8B 1D 00 00 00 00         mov       ebx,long unsigned near void near Mix16Channel( long unsigned, long unsigned, long unsigned )::.0::VolumeRight
1558    A1 00 00 00 00            mov       eax,long unsigned near void near Mix16Channel( long unsigned, long unsigned, long unsigned )::.0::VolumeLeft

155D    89 CE                     mov       esi,ecx
155F    8B 97 00 00 00 00         mov       edx,long near DeltaSamplePosition[][edi]
1565    8B 8F 00 00 00 00         mov       ecx,long near DeltaSampleFraction[][edi]
156B    E8 00 00 00 00            call      setup16Mto16S_
1570    8B 0D 00 00 00 00         mov       ecx,long unsigned near void near Mix16Channel( long unsigned, long unsigned, long unsigned )::.0::FracCounter

1576    8B 97 00 00 00 00         mov       edx,long unsigned near ChannelSampleAddress[][edi]
157C    8B 87 00 00 00 00         mov       eax,long unsigned near ChannelSamplePosition[][edi]
1582    D1 EA                     shr       edx,0x00000001

1584    89 EF                     mov       edi,ebp
1586    01 C2                     add       edx,eax
1588    F7 DF                     neg       edi
158A    89 D6                     mov       esi,edx
158C    89 15 00 00 00 00         mov       long unsigned near void near Mix16Channel( long unsigned, long unsigned, long unsigned )::.0::SampleAddress,edx
1592    E8 00 00 00 00            call      mix16Mto16S_
1597    5D                        pop       ebp
1598    5F                        pop       edi
1599    5E                        pop       esi
159A    59                        pop       ecx
159B    C3                        ret       



static void Mix16IChannel ( unsigned long channel, unsigned long counter, unsigned long MixPosition )
159C                          void near Mix16IChannel( long unsigned, long unsigned, long unsigned ):
159C    51                        push      ecx
159D    56                        push      esi
159E    57                        push      edi
159F    55                        push      ebp
15A0    89 D9                     mov       ecx,ebx

{
 static unsigned long Volume, VolumeLeft, VolumeRight;
 static unsigned long VolTable;
 static unsigned long FracCounter, SampleAddress;
 static unsigned long BlockAddress;

 if ( counter == 0 )  return;
15A2    85 D2                     test      edx,edx
15A4    0F 84 AD 00 00 00         je        L$111


 Volume = ( ChannelVolume[channel] * GlobalVolume + 128 ) >> 8;
15AA    8D 3C 85 00 00 00 00      lea       edi,[eax*4]
15B1    8B 1D 00 00 00 00         mov       ebx,long unsigned near GlobalVolume
15B7    8B B7 00 00 00 00         mov       esi,long unsigned near ChannelVolume[][edi]
15BD    0F AF F3                  imul      esi,ebx
15C0    81 C6 80 00 00 00         add       esi,0x00000080
15C6    C1 EE 08                  shr       esi,0x00000008
15C9    89 35 00 00 00 00         mov       long unsigned near void near Mix16IChannel( long unsigned, long unsigned, long unsigned )::.0::Volume,esi


 if ( Volume != 0 )
15CF    85 F6                     test      esi,esi
15D1    0F 84 80 00 00 00         je        L$111

    {
     if ( flag_stereo == 0 )    // mono sample
15D7    31 DB                     xor       ebx,ebx
15D9    8A 1D 00 00 00 00         mov       bl,char unsigned near flag_stereo
15DF    85 DB                     test      ebx,ebx
15E1    0F 85 B9 00 00 00         jne       L$113
15E7    8B 1D 00 00 00 00         mov       ebx,char near * near MixerBlock
15ED    8D 34 12                  lea       esi,[edx+edx]

        {
         BlockAddress = (unsigned long)(MixerBlock+(MixPosition << 1)+(counter << 1));
15F0    01 C9                     add       ecx,ecx


         FracCounter = (unsigned long)ChannelSampleFraction[channel] << 16;

         if ( ChannelSampleBits[channel] == 8 )
15F2    8A 80 00 00 00 00         mov       al,char unsigned near ChannelSampleBits[][eax]
15F8    01 D9                     add       ecx,ebx

15FA    8B 97 00 00 00 00         mov       edx,long unsigned near ChannelSampleFraction[][edi]
1600    01 F1                     add       ecx,esi
1602    C1 E2 10                  shl       edx,0x00000010
1605    89 0D 00 00 00 00         mov       long unsigned near void near Mix16IChannel( long unsigned, long unsigned, long unsigned )::.0::BlockAddress,ecx
160B    89 15 00 00 00 00         mov       long unsigned near void near Mix16IChannel( long unsigned, long unsigned, long unsigned )::.0::FracCounter,edx
1611    25 FF 00 00 00            and       eax,0x000000ff
1616    83 F8 08                  cmp       eax,0x00000008
1619    75 41                     jne       L$112
161B    A1 00 00 00 00            mov       eax,long unsigned near void near Mix16IChannel( long unsigned, long unsigned, long unsigned )::.0::Volume

            {
             setup8MIto16M ( Volume, DeltaSamplePosition[channel], DeltaSampleFraction[channel], BlockAddress );
1620    89 CA                     mov       edx,ecx
1622    8B 9F 00 00 00 00         mov       ebx,long near DeltaSampleFraction[][edi]
1628    8B 8F 00 00 00 00         mov       ecx,long near DeltaSamplePosition[][edi]
162E    E8 00 00 00 00            call      setup8MIto16M_
1633    8B 0D 00 00 00 00         mov       ecx,long unsigned near void near Mix16IChannel( long unsigned, long unsigned, long unsigned )::.0::FracCounter

             SampleAddress = (unsigned long)(ChannelSampleAddress[channel] + ChannelSamplePosition[channel]);
1639    8B 87 00 00 00 00         mov       eax,long unsigned near ChannelSampleAddress[][edi]
163F    8B AF 00 00 00 00         mov       ebp,long unsigned near ChannelSamplePosition[][edi]

             mix8MIto16M ( FracCounter, SampleAddress, -(counter << 1) );
1645    89 F7                     mov       edi,esi
1647    01 E8                     add       eax,ebp
1649    F7 DF                     neg       edi
164B    89 C6                     mov       esi,eax
164D    A3 00 00 00 00            mov       long unsigned near void near Mix16IChannel( long unsigned, long unsigned, long unsigned )::.0::SampleAddress,eax
1652    E8 00 00 00 00            call      mix8MIto16M_

            }
         else    // 16bit sample
            {
             setup16MIto16M ( Volume, DeltaSamplePosition[channel], DeltaSampleFraction[channel], BlockAddress );
             SampleAddress = (unsigned long)( (ChannelSampleAddress[channel] >> 1) + ChannelSamplePosition[channel]);
             mix16MIto16M ( FracCounter, SampleAddress, -(counter << 1) );
            }
        }
     else   // stereo
        {
         VolumeLeft = ( ChannelVolumeLeft[channel] * GlobalVolume + 128 ) >> 8;
         VolumeRight = ( ChannelVolumeRight[channel] * GlobalVolume + 128 ) >> 8;

         BlockAddress = (unsigned long)(MixerBlock+(MixPosition << 2)+(counter << 2) );

         FracCounter = (unsigned long)ChannelSampleFraction[channel] << 16;

         if ( ChannelSampleBits[channel] == 8 )  // 8bit sample
            {
             setup8MIto16S ( VolumeLeft, VolumeRight, DeltaSamplePosition[channel], DeltaSampleFraction[channel], BlockAddress );
             SampleAddress = (unsigned long)(ChannelSampleAddress[channel] + ChannelSamplePosition[channel]);
             mix8MIto16S ( FracCounter, SampleAddress, -(counter << 2) );
            }
         else   // 16bit sample
            {
             setup16MIto16S ( VolumeLeft, VolumeRight, DeltaSamplePosition[channel], DeltaSampleFraction[channel], BlockAddress );
             SampleAddress = (unsigned long)( (ChannelSampleAddress[channel] >> 1) + ChannelSamplePosition[channel]);
             mix16MIto16S ( FracCounter, SampleAddress, -(counter << 2) );
            }
        } // end stereo
    }  // end if silence
}
1657                          L$111:
1657    5D                        pop       ebp
1658    5F                        pop       edi
1659    5E                        pop       esi
165A    59                        pop       ecx
165B    C3                        ret       
165C                          L$112:
165C    A1 00 00 00 00            mov       eax,long unsigned near void near Mix16IChannel( long unsigned, long unsigned, long unsigned )::.0::Volume

1661    89 CA                     mov       edx,ecx
1663    8B 9F 00 00 00 00         mov       ebx,long near DeltaSampleFraction[][edi]
1669    8B 8F 00 00 00 00         mov       ecx,long near DeltaSamplePosition[][edi]
166F    E8 00 00 00 00            call      setup16MIto16M_
1674    8B 0D 00 00 00 00         mov       ecx,long unsigned near void near Mix16IChannel( long unsigned, long unsigned, long unsigned )::.0::FracCounter

167A    8B 97 00 00 00 00         mov       edx,long unsigned near ChannelSampleAddress[][edi]
1680    8B 87 00 00 00 00         mov       eax,long unsigned near ChannelSamplePosition[][edi]
1686    D1 EA                     shr       edx,0x00000001

1688    89 F7                     mov       edi,esi
168A    01 C2                     add       edx,eax
168C    F7 DF                     neg       edi
168E    89 D6                     mov       esi,edx
1690    89 15 00 00 00 00         mov       long unsigned near void near Mix16IChannel( long unsigned, long unsigned, long unsigned )::.0::SampleAddress,edx
1696    E8 00 00 00 00            call      mix16MIto16M_
169B    5D                        pop       ebp
169C    5F                        pop       edi
169D    5E                        pop       esi
169E    59                        pop       ecx
169F    C3                        ret       

16A0                          L$113:
16A0    8B 2D 00 00 00 00         mov       ebp,long unsigned near GlobalVolume

16A6    8B B7 00 00 00 00         mov       esi,long unsigned near ChannelVolumeLeft[][edi]
16AC    0F AF F5                  imul      esi,ebp
16AF    81 C6 80 00 00 00         add       esi,0x00000080
16B5    C1 EE 08                  shr       esi,0x00000008
16B8    89 35 00 00 00 00         mov       long unsigned near void near Mix16IChannel( long unsigned, long unsigned, long unsigned )::.0::VolumeLeft,esi

16BE    8B B7 00 00 00 00         mov       esi,long unsigned near ChannelVolumeRight[][edi]
16C4    0F AF F5                  imul      esi,ebp
16C7    8B 1D 00 00 00 00         mov       ebx,char near * near MixerBlock

16CD    C1 E1 02                  shl       ecx,0x00000002

16D0    8A 80 00 00 00 00         mov       al,char unsigned near ChannelSampleBits[][eax]
16D6    01 D9                     add       ecx,ebx
16D8    81 C6 80 00 00 00         add       esi,0x00000080
16DE    8D 2C 95 00 00 00 00      lea       ebp,[edx*4]
16E5    C1 EE 08                  shr       esi,0x00000008

16E8    8B 97 00 00 00 00         mov       edx,long unsigned near ChannelSampleFraction[][edi]
16EE    01 E9                     add       ecx,ebp
16F0    89 35 00 00 00 00         mov       long unsigned near void near Mix16IChannel( long unsigned, long unsigned, long unsigned )::.0::VolumeRight,esi
16F6    C1 E2 10                  shl       edx,0x00000010
16F9    89 0D 00 00 00 00         mov       long unsigned near void near Mix16IChannel( long unsigned, long unsigned, long unsigned )::.0::BlockAddress,ecx
16FF    89 15 00 00 00 00         mov       long unsigned near void near Mix16IChannel( long unsigned, long unsigned, long unsigned )::.0::FracCounter,edx
1705    25 FF 00 00 00            and       eax,0x000000ff
170A    83 F8 08                  cmp       eax,0x00000008
170D    75 47                     jne       L$114
170F    8B 1D 00 00 00 00         mov       ebx,long unsigned near void near Mix16IChannel( long unsigned, long unsigned, long unsigned )::.0::VolumeRight
1715    A1 00 00 00 00            mov       eax,long unsigned near void near Mix16IChannel( long unsigned, long unsigned, long unsigned )::.0::VolumeLeft

171A    89 CE                     mov       esi,ecx
171C    8B 97 00 00 00 00         mov       edx,long near DeltaSamplePosition[][edi]
1722    8B 8F 00 00 00 00         mov       ecx,long near DeltaSampleFraction[][edi]
1728    E8 00 00 00 00            call      setup8MIto16S_
172D    8B 0D 00 00 00 00         mov       ecx,long unsigned near void near Mix16IChannel( long unsigned, long unsigned, long unsigned )::.0::FracCounter

1733    8B 87 00 00 00 00         mov       eax,long unsigned near ChannelSampleAddress[][edi]
1739    8B B7 00 00 00 00         mov       esi,long unsigned near ChannelSamplePosition[][edi]

173F    89 EF                     mov       edi,ebp
1741    01 F0                     add       eax,esi
1743    F7 DF                     neg       edi
1745    89 C6                     mov       esi,eax
1747    A3 00 00 00 00            mov       long unsigned near void near Mix16IChannel( long unsigned, long unsigned, long unsigned )::.0::SampleAddress,eax
174C    E8 00 00 00 00            call      mix8MIto16S_
1751    5D                        pop       ebp
1752    5F                        pop       edi
1753    5E                        pop       esi
1754    59                        pop       ecx
1755    C3                        ret       

1756                          L$114:
1756    8B 1D 00 00 00 00         mov       ebx,long unsigned near void near Mix16IChannel( long unsigned, long unsigned, long unsigned )::.0::VolumeRight
175C    A1 00 00 00 00            mov       eax,long unsigned near void near Mix16IChannel( long unsigned, long unsigned, long unsigned )::.0::VolumeLeft

1761    89 CE                     mov       esi,ecx
1763    8B 97 00 00 00 00         mov       edx,long near DeltaSamplePosition[][edi]
1769    8B 8F 00 00 00 00         mov       ecx,long near DeltaSampleFraction[][edi]
176F    E8 00 00 00 00            call      setup16MIto16S_
1774    8B 0D 00 00 00 00         mov       ecx,long unsigned near void near Mix16IChannel( long unsigned, long unsigned, long unsigned )::.0::FracCounter

177A    8B 97 00 00 00 00         mov       edx,long unsigned near ChannelSampleAddress[][edi]
1780    8B 87 00 00 00 00         mov       eax,long unsigned near ChannelSamplePosition[][edi]
1786    D1 EA                     shr       edx,0x00000001

1788    89 EF                     mov       edi,ebp
178A    01 C2                     add       edx,eax
178C    F7 DF                     neg       edi
178E    89 D6                     mov       esi,edx
1790    89 15 00 00 00 00         mov       long unsigned near void near Mix16IChannel( long unsigned, long unsigned, long unsigned )::.0::SampleAddress,edx
1796    E8 00 00 00 00            call      mix16MIto16S_
179B    5D                        pop       ebp
179C    5F                        pop       edi
179D    5E                        pop       esi
179E    59                        pop       ecx
179F    C3                        ret       


static void Mix16ICarry ( unsigned long channel, unsigned long Position1, unsigned long Position2, unsigned long Fraction, unsigned long MixPosition)
17A0                          void near Mix16ICarry( long unsigned, long unsigned, long unsigned, long unsigned, long unsigned ):
17A0    56                        push      esi
17A1    57                        push      edi
17A2    55                        push      ebp
17A3    83 EC 10                  sub       esp,0x00000010
17A6    89 D7                     mov       edi,edx
17A8    89 5C 24 08               mov       0x8[esp],ebx
17AC    89 CB                     mov       ebx,ecx

{
 static unsigned long Volume, VolumeLeft, VolumeRight;
 static unsigned long SampleAddress1, SampleAddress2;
 static   signed long IntSample, Sample1, Sample2;
 static unsigned long BlockAddress;

 Volume = ( ChannelVolume[channel] * GlobalVolume + 128 ) >> 8;
17AE    8D 2C 85 00 00 00 00      lea       ebp,[eax*4]
17B5    8B 0D 00 00 00 00         mov       ecx,long unsigned near GlobalVolume
17BB    8B 95 00 00 00 00         mov       edx,long unsigned near ChannelVolume[][ebp]
17C1    0F AF D1                  imul      edx,ecx
17C4    81 C2 80 00 00 00         add       edx,0x00000080
17CA    C1 EA 08                  shr       edx,0x00000008
17CD    89 15 00 00 00 00         mov       long unsigned near void near Mix16ICarry( long unsigned, long unsigned, long unsigned, long unsign::.0::Volume,edx


 if ( Volume != 0 )
17D3    85 D2                     test      edx,edx
17D5    0F 84 BA 00 00 00         je        L$116

    {
     SampleAddress1 = SampleAddress2 = ChannelSampleAddress[channel];

     if ( flag_stereo == 0 )    // mono sample
17DB    31 D2                     xor       edx,edx
17DD    8A 15 00 00 00 00         mov       dl,char unsigned near flag_stereo

17E3    8B B5 00 00 00 00         mov       esi,long unsigned near ChannelSampleAddress[][ebp]
17E9    89 14 24                  mov       [esp],edx
17EC    8B 54 24 08               mov       edx,0x8[esp]
17F0    8B 4C 24 08               mov       ecx,0x8[esp]
17F4    01 F2                     add       edx,esi
17F6    01 C9                     add       ecx,ecx
17F8    89 54 24 0C               mov       0xc[esp],edx
17FC    8D 14 3E                  lea       edx,[esi+edi]
17FF    01 FF                     add       edi,edi
1801    89 7C 24 04               mov       0x4[esp],edi
1805    8D 3C 31                  lea       edi,[ecx+esi]
1808    03 74 24 04               add       esi,0x4[esp]
180C    83 3C 24 00               cmp       dword ptr [esp],0x00000000
1810    0F 85 DE 00 00 00         jne       L$118

        {
         BlockAddress = (uns long)( MixerBlock + (MixPosition << 1) );
1816    8B 6C 24 20               mov       ebp,0x20[esp]
181A    8B 0D 00 00 00 00         mov       ecx,char near * near MixerBlock
1820    01 ED                     add       ebp,ebp
1822    01 E9                     add       ecx,ebp


         if ( ChannelSampleBits[channel] == 8 )
1824    8A 80 00 00 00 00         mov       al,char unsigned near ChannelSampleBits[][eax]
182A    89 0D 00 00 00 00         mov       long unsigned near void near Mix16ICarry( long unsigned, long unsigned, long unsigned, long unsign::.0::BlockAddress,ecx
1830    25 FF 00 00 00            and       eax,0x000000ff
1835    83 F8 08                  cmp       eax,0x00000008
1838    75 64                     jne       L$117

            {
             SampleAddress1 += Position1;
             SampleAddress2 += Position2;
183A    8B 44 24 0C               mov       eax,0xc[esp]

183E    89 15 00 00 00 00         mov       long unsigned near void near Mix16ICarry( long unsigned, long unsigned, long unsigned, long unsign::.0::SampleAddress1,edx
1844    A3 00 00 00 00            mov       long unsigned near void near Mix16ICarry( long unsigned, long unsigned, long unsigned, long unsign::.0::SampleAddress2,eax

             Sample1 = (signed long) (*(signed char *)SampleAddress1);
1849    0F BE 02                  movsx     eax,byte ptr [edx]

             Sample2 = (signed long) (*(signed char *)SampleAddress2);
184C    8B 54 24 0C               mov       edx,0xc[esp]
1850    0F BE 12                  movsx     edx,byte ptr [edx]
1853    89 15 00 00 00 00         mov       long near void near Mix16ICarry( long unsigned, long unsigned, long unsigned, long unsign::.0::Sample2,edx

             IntSample = (Sample2 - Sample1) * (signed long)Fraction + (Sample1 << 16);
1859    29 C2                     sub       edx,eax
185B    0F AF D3                  imul      edx,ebx
185E    A3 00 00 00 00            mov       long near void near Mix16ICarry( long unsigned, long unsigned, long unsigned, long unsign::.0::Sample1,eax
1863    C1 E0 10                  shl       eax,0x00000010
1866    31 C9                     xor       ecx,ecx
1868    01 C2                     add       edx,eax
186A    8B 1D 00 00 00 00         mov       ebx,long unsigned near void near Mix16ICarry( long unsigned, long unsigned, long unsigned, long unsign::.0::Volume
1870    89 15 00 00 00 00         mov       long near void near Mix16ICarry( long unsigned, long unsigned, long unsigned, long unsign::.0::IntSample,edx


             (*(signed short *)(BlockAddress)) += (signed short)( (__int64)IntSample * (__int64)Volume / 16777216);
1876    89 D0                     mov       eax,edx
1878    C1 FA 1F                  sar       edx,0x0000001f
187B                          L$115:
187B    E8 00 00 00 00            call      __I8M
1880    BB 00 00 00 01            mov       ebx,0x01000000
1885    31 C9                     xor       ecx,ecx
1887    E8 00 00 00 00            call      __I8D
188C    8B 15 00 00 00 00         mov       edx,long unsigned near void near Mix16ICarry( long unsigned, long unsigned, long unsigned, long unsign::.0::BlockAddress
1892    66 01 02                  add       [edx],ax

            }
         else    // 16bit sample
            {
             SampleAddress1 += (Position1 << 1);
             SampleAddress2 += (Position2 << 1);
             Sample1 = (signed long) (*(signed short *)SampleAddress1);
             Sample2 = (signed long) (*(signed short *)SampleAddress2);
             IntSample = (( (__int64)(Sample2 - Sample1) * (__int64)Fraction) / 256) + (Sample1 << 8);

             (*(signed short *)(BlockAddress)) += (signed short)( (__int64)IntSample * (__int64)Volume / 16777216);
            }
        }
     else   // stereo
        {
         VolumeLeft = ( ChannelVolumeLeft[channel] * GlobalVolume + 128 ) >> 8;
         VolumeRight = ( ChannelVolumeRight[channel] * GlobalVolume + 128 ) >> 8;

         BlockAddress = (unsigned long)( MixerBlock + (MixPosition << 2) );

         if ( ChannelSampleBits[channel] == 8 )  // 8bit sample
            {
             SampleAddress1 += Position1;
             SampleAddress2 += Position2;

             Sample1 = (signed long) (*(signed char *)SampleAddress1);
             Sample2 = (signed long) (*(signed char *)SampleAddress2);
             IntSample = (Sample2 - Sample1) * (signed long)Fraction + (Sample1 << 16);

             (*(signed short *)(BlockAddress)) += (signed short)( (__int64)IntSample * (__int64)VolumeLeft / 16777216);
             (*(signed short *)(BlockAddress+2)) += (signed short)( (__int64)IntSample * (__int64)VolumeRight / 16777216);
            }
         else   // 16bit sample
            {
             SampleAddress1 += (Position1 << 1);
             SampleAddress2 += (Position2 << 1);

             Sample1 = (signed long) (*(signed short *)SampleAddress1);
             Sample2 = (signed long) (*(signed short *)SampleAddress2);
             IntSample = (( (__int64)(Sample2 - Sample1) * (__int64)Fraction) / 256) + (Sample1 << 8);

             (*(signed short *)(BlockAddress)) += (signed short)( (__int64)IntSample * (__int64)VolumeLeft / 16777216);
             (*(signed short *)(BlockAddress+2)) += (signed short)( (__int64)IntSample * (__int64)VolumeRight / 16777216);
            }
        } // end stereo
    }  // end if silence
}
1895                          L$116:
1895    83 C4 10                  add       esp,0x00000010
1898    5D                        pop       ebp
1899    5F                        pop       edi
189A    5E                        pop       esi
189B    C2 04 00                  ret       0x00000004

189E                          L$117:
189E    89 35 00 00 00 00         mov       long unsigned near void near Mix16ICarry( long unsigned, long unsigned, long unsigned, long unsign::.0::SampleAddress1,esi

18A4    0F BF 07                  movsx     eax,word ptr [edi]

18A7    0F BF 16                  movsx     edx,word ptr [esi]
18AA    A3 00 00 00 00            mov       long near void near Mix16ICarry( long unsigned, long unsigned, long unsigned, long unsign::.0::Sample2,eax

18AF    29 D0                     sub       eax,edx
18B1    89 15 00 00 00 00         mov       long near void near Mix16ICarry( long unsigned, long unsigned, long unsigned, long unsign::.0::Sample1,edx
18B7    89 C2                     mov       edx,eax
18B9    31 C9                     xor       ecx,ecx
18BB    C1 FA 1F                  sar       edx,0x0000001f

18BE    89 3D 00 00 00 00         mov       long unsigned near void near Mix16ICarry( long unsigned, long unsigned, long unsigned, long unsign::.0::SampleAddress2,edi
18C4    E8 00 00 00 00            call      __I8M
18C9    BB 00 01 00 00            mov       ebx,0x00000100
18CE    31 C9                     xor       ecx,ecx
18D0    E8 00 00 00 00            call      __I8D
18D5    8B 15 00 00 00 00         mov       edx,long near void near Mix16ICarry( long unsigned, long unsigned, long unsigned, long unsign::.0::Sample1
18DB    C1 E2 08                  shl       edx,0x00000008
18DE    8B 1D 00 00 00 00         mov       ebx,long unsigned near void near Mix16ICarry( long unsigned, long unsigned, long unsigned, long unsign::.0::Volume
18E4    01 D0                     add       eax,edx

18E6    89 C2                     mov       edx,eax
18E8    31 C9                     xor       ecx,ecx
18EA    C1 FA 1F                  sar       edx,0x0000001f
18ED    A3 00 00 00 00            mov       long near void near Mix16ICarry( long unsigned, long unsigned, long unsigned, long unsign::.0::IntSample,eax

18F2    EB 87                     jmp       L$115

18F4                          L$118:
18F4    8B 8D 00 00 00 00         mov       ecx,long unsigned near ChannelVolumeLeft[][ebp]
18FA    0F AF 0D 00 00 00 00      imul      ecx,long unsigned near GlobalVolume
1901    81 C1 80 00 00 00         add       ecx,0x00000080
1907    C1 E9 08                  shr       ecx,0x00000008

190A    8B AD 00 00 00 00         mov       ebp,long unsigned near ChannelVolumeRight[][ebp]
1910    89 0D 00 00 00 00         mov       long unsigned near void near Mix16ICarry( long unsigned, long unsigned, long unsigned, long unsign::.0::VolumeLeft,ecx
1916    0F AF 2D 00 00 00 00      imul      ebp,long unsigned near GlobalVolume
191D    81 C5 80 00 00 00         add       ebp,0x00000080
1923    C1 ED 08                  shr       ebp,0x00000008
1926    89 2D 00 00 00 00         mov       long unsigned near void near Mix16ICarry( long unsigned, long unsigned, long unsigned, long unsign::.0::VolumeRight,ebp

192C    8B 6C 24 20               mov       ebp,0x20[esp]
1930    8B 0D 00 00 00 00         mov       ecx,char near * near MixerBlock
1936    C1 E5 02                  shl       ebp,0x00000002
1939    01 E9                     add       ecx,ebp

193B    8A 80 00 00 00 00         mov       al,char unsigned near ChannelSampleBits[][eax]
1941    89 0D 00 00 00 00         mov       long unsigned near void near Mix16ICarry( long unsigned, long unsigned, long unsigned, long unsign::.0::BlockAddress,ecx
1947    25 FF 00 00 00            and       eax,0x000000ff
194C    83 F8 08                  cmp       eax,0x00000008
194F    0F 85 90 00 00 00         jne       L$119

1955    8B 44 24 0C               mov       eax,0xc[esp]

1959    89 15 00 00 00 00         mov       long unsigned near void near Mix16ICarry( long unsigned, long unsigned, long unsigned, long unsign::.0::SampleAddress1,edx
195F    A3 00 00 00 00            mov       long unsigned near void near Mix16ICarry( long unsigned, long unsigned, long unsigned, long unsign::.0::SampleAddress2,eax

1964    0F BE 02                  movsx     eax,byte ptr [edx]

1967    8B 54 24 0C               mov       edx,0xc[esp]
196B    0F BE 12                  movsx     edx,byte ptr [edx]
196E    89 15 00 00 00 00         mov       long near void near Mix16ICarry( long unsigned, long unsigned, long unsigned, long unsign::.0::Sample2,edx

1974    29 C2                     sub       edx,eax
1976    0F AF D3                  imul      edx,ebx
1979    A3 00 00 00 00            mov       long near void near Mix16ICarry( long unsigned, long unsigned, long unsigned, long unsign::.0::Sample1,eax
197E    C1 E0 10                  shl       eax,0x00000010
1981    31 C9                     xor       ecx,ecx
1983    01 C2                     add       edx,eax
1985    8B 1D 00 00 00 00         mov       ebx,long unsigned near void near Mix16ICarry( long unsigned, long unsigned, long unsigned, long unsign::.0::VolumeLeft
198B    89 15 00 00 00 00         mov       long near void near Mix16ICarry( long unsigned, long unsigned, long unsigned, long unsign::.0::IntSample,edx
1991    89 D5                     mov       ebp,edx

1993    89 D6                     mov       esi,edx
1995    C1 FD 1F                  sar       ebp,0x0000001f
1998    89 D0                     mov       eax,edx
199A    89 EA                     mov       edx,ebp
199C    E8 00 00 00 00            call      __I8M
19A1    BB 00 00 00 01            mov       ebx,0x01000000
19A6    31 C9                     xor       ecx,ecx
19A8    E8 00 00 00 00            call      __I8D
19AD    8B 3D 00 00 00 00         mov       edi,long unsigned near void near Mix16ICarry( long unsigned, long unsigned, long unsigned, long unsign::.0::BlockAddress

19B3    8B 1D 00 00 00 00         mov       ebx,long unsigned near void near Mix16ICarry( long unsigned, long unsigned, long unsigned, long unsign::.0::VolumeRight
19B9    66 8B 0F                  mov       cx,[edi]
19BC    89 EA                     mov       edx,ebp
19BE    01 C1                     add       ecx,eax
19C0    89 F0                     mov       eax,esi
19C2    66 89 0F                  mov       [edi],cx
19C5    31 C9                     xor       ecx,ecx
19C7    E8 00 00 00 00            call      __I8M
19CC    BB 00 00 00 01            mov       ebx,0x01000000
19D1    31 C9                     xor       ecx,ecx
19D3    E8 00 00 00 00            call      __I8D
19D8    66 01 47 02               add       0x2[edi],ax
19DC    83 C4 10                  add       esp,0x00000010
19DF    5D                        pop       ebp
19E0    5F                        pop       edi
19E1    5E                        pop       esi
19E2    C2 04 00                  ret       0x00000004

19E5                          L$119:
19E5    89 35 00 00 00 00         mov       long unsigned near void near Mix16ICarry( long unsigned, long unsigned, long unsigned, long unsign::.0::SampleAddress1,esi

19EB    0F BF 06                  movsx     eax,word ptr [esi]

19EE    0F BF 17                  movsx     edx,word ptr [edi]
19F1    31 C9                     xor       ecx,ecx
19F3    89 15 00 00 00 00         mov       long near void near Mix16ICarry( long unsigned, long unsigned, long unsigned, long unsign::.0::Sample2,edx

19F9    29 C2                     sub       edx,eax
19FB    A3 00 00 00 00            mov       long near void near Mix16ICarry( long unsigned, long unsigned, long unsigned, long unsign::.0::Sample1,eax
1A00    89 D0                     mov       eax,edx
1A02    C1 FA 1F                  sar       edx,0x0000001f

1A05    89 3D 00 00 00 00         mov       long unsigned near void near Mix16ICarry( long unsigned, long unsigned, long unsigned, long unsign::.0::SampleAddress2,edi
1A0B    E8 00 00 00 00            call      __I8M
1A10    BB 00 01 00 00            mov       ebx,0x00000100
1A15    31 C9                     xor       ecx,ecx
1A17    E8 00 00 00 00            call      __I8D
1A1C    8B 35 00 00 00 00         mov       esi,long near void near Mix16ICarry( long unsigned, long unsigned, long unsigned, long unsign::.0::Sample1
1A22    C1 E6 08                  shl       esi,0x00000008
1A25    8B 1D 00 00 00 00         mov       ebx,long unsigned near void near Mix16ICarry( long unsigned, long unsigned, long unsigned, long unsign::.0::VolumeLeft
1A2B    01 C6                     add       esi,eax

1A2D    89 F7                     mov       edi,esi
1A2F    31 C9                     xor       ecx,ecx
1A31    C1 FF 1F                  sar       edi,0x0000001f
1A34    89 F0                     mov       eax,esi
1A36    89 FA                     mov       edx,edi
1A38    89 35 00 00 00 00         mov       long near void near Mix16ICarry( long unsigned, long unsigned, long unsigned, long unsign::.0::IntSample,esi
1A3E    E8 00 00 00 00            call      __I8M
1A43    BB 00 00 00 01            mov       ebx,0x01000000
1A48    31 C9                     xor       ecx,ecx
1A4A    E8 00 00 00 00            call      __I8D
1A4F    8B 2D 00 00 00 00         mov       ebp,long unsigned near void near Mix16ICarry( long unsigned, long unsigned, long unsigned, long unsign::.0::BlockAddress

1A55    8B 1D 00 00 00 00         mov       ebx,long unsigned near void near Mix16ICarry( long unsigned, long unsigned, long unsigned, long unsign::.0::VolumeRight
1A5B    66 8B 55 00               mov       dx,[ebp]
1A5F    31 C9                     xor       ecx,ecx
1A61    01 C2                     add       edx,eax
1A63    89 F0                     mov       eax,esi
1A65    66 89 55 00               mov       [ebp],dx
1A69    89 FA                     mov       edx,edi
1A6B    E8 00 00 00 00            call      __I8M
1A70    BB 00 00 00 01            mov       ebx,0x01000000
1A75    31 C9                     xor       ecx,ecx
1A77    E8 00 00 00 00            call      __I8D
1A7C    66 01 45 02               add       0x2[ebp],ax
1A80    83 C4 10                  add       esp,0x00000010
1A83    5D                        pop       ebp
1A84    5F                        pop       edi
1A85    5E                        pop       esi
1A86    C2 04 00                  ret       0x00000004
1A89    8D 40 00                  lea       eax,[eax]




static void Mix32Channel ( unsigned long channel, unsigned long counter, unsigned long MixPosition )
1A8C                          void near Mix32Channel( long unsigned, long unsigned, long unsigned ):
1A8C    51                        push      ecx
1A8D    56                        push      esi
1A8E    57                        push      edi
1A8F    55                        push      ebp
1A90    89 D9                     mov       ecx,ebx

{
 static unsigned long Volume, VolumeLeft, VolumeRight;
 static unsigned long VolTable, VolLeftTable, VolRightTable;
 static unsigned long FracCounter, SampleAddress;
 static unsigned long BlockAddress;

 if ( counter == 0 )  return;
1A92    85 D2                     test      edx,edx
1A94    0F 84 C2 00 00 00         je        L$120


 Volume = ( ChannelVolume[channel] * GlobalVolume + 128 ) >> 8;
1A9A    8D 3C 85 00 00 00 00      lea       edi,[eax*4]
1AA1    8B 1D 00 00 00 00         mov       ebx,long unsigned near GlobalVolume
1AA7    8B B7 00 00 00 00         mov       esi,long unsigned near ChannelVolume[][edi]
1AAD    0F AF F3                  imul      esi,ebx
1AB0    8D 9E 80 00 00 00         lea       ebx,0x80[esi]
1AB6    C1 EB 08                  shr       ebx,0x00000008
1AB9    89 1D 00 00 00 00         mov       long unsigned near void near Mix32Channel( long unsigned, long unsigned, long unsigned )::.0::Volume,ebx


 if ( Volume != 0 )
1ABF    85 DB                     test      ebx,ebx
1AC1    0F 84 95 00 00 00         je        L$120

    {
     if ( flag_stereo == 0 )    // mono mixer
1AC7    31 DB                     xor       ebx,ebx
1AC9    8A 1D 00 00 00 00         mov       bl,char unsigned near flag_stereo
1ACF    85 DB                     test      ebx,ebx
1AD1    0F 85 CE 00 00 00         jne       L$122
1AD7    8B 1D 00 00 00 00         mov       ebx,char near * near MixerBlock

        {
         BlockAddress = (unsigned long)MixerBlock + (MixPosition << 2) + (counter << 2);
1ADD    C1 E1 02                  shl       ecx,0x00000002
1AE0    8D 34 95 00 00 00 00      lea       esi,[edx*4]


         FracCounter = (unsigned long)ChannelSampleFraction[channel] * 65536;

         if ( ChannelSampleBits[channel] == 8 )
1AE7    8A 80 00 00 00 00         mov       al,char unsigned near ChannelSampleBits[][eax]
1AED    01 D9                     add       ecx,ebx

1AEF    8B 97 00 00 00 00         mov       edx,long unsigned near ChannelSampleFraction[][edi]
1AF5    01 F1                     add       ecx,esi
1AF7    C1 E2 10                  shl       edx,0x00000010
1AFA    89 0D 00 00 00 00         mov       long unsigned near void near Mix32Channel( long unsigned, long unsigned, long unsigned )::.0::BlockAddress,ecx
1B00    89 15 00 00 00 00         mov       long unsigned near void near Mix32Channel( long unsigned, long unsigned, long unsigned )::.0::FracCounter,edx
1B06    25 FF 00 00 00            and       eax,0x000000ff
1B0B    83 F8 08                  cmp       eax,0x00000008
1B0E    75 51                     jne       L$121

            {
             VolTable = (unsigned long)( Voltable8 + ((unsigned long)Volume << 10 ) );
1B10    8B 15 00 00 00 00         mov       edx,long unsigned near void near Mix32Channel( long unsigned, long unsigned, long unsigned )::.0::Volume
1B16    A1 00 00 00 00            mov       eax,char near * near Voltable8
1B1B    C1 E2 0A                  shl       edx,0x0000000a
1B1E    8B 9F 00 00 00 00         mov       ebx,long near DeltaSampleFraction[][edi]
1B24    01 D0                     add       eax,edx

             setup8Mto32M ( VolTable, DeltaSamplePosition[channel], DeltaSampleFraction[channel], BlockAddress );
1B26    89 CA                     mov       edx,ecx
1B28    8B 8F 00 00 00 00         mov       ecx,long near DeltaSamplePosition[][edi]
1B2E    A3 00 00 00 00            mov       long unsigned near void near Mix32Channel( long unsigned, long unsigned, long unsigned )::.0::VolTable,eax
1B33    E8 00 00 00 00            call      setup8Mto32M_
1B38    8B 0D 00 00 00 00         mov       ecx,long unsigned near void near Mix32Channel( long unsigned, long unsigned, long unsigned )::.0::FracCounter

             SampleAddress = (unsigned long)(ChannelSampleAddress[channel] + ChannelSamplePosition[channel]);
1B3E    8B 87 00 00 00 00         mov       eax,long unsigned near ChannelSampleAddress[][edi]
1B44    8B AF 00 00 00 00         mov       ebp,long unsigned near ChannelSamplePosition[][edi]

             mix8Mto32M ( FracCounter, SampleAddress, -(counter << 2) );
1B4A    89 F7                     mov       edi,esi
1B4C    01 E8                     add       eax,ebp
1B4E    F7 DF                     neg       edi
1B50    89 C6                     mov       esi,eax
1B52    A3 00 00 00 00            mov       long unsigned near void near Mix32Channel( long unsigned, long unsigned, long unsigned )::.0::SampleAddress,eax
1B57    E8 00 00 00 00            call      mix8Mto32M_

            }
         else    // 16bit sample
            {
             setup16Mto32M ( Volume, DeltaSamplePosition[channel], DeltaSampleFraction[channel], BlockAddress );
             SampleAddress = (unsigned long)( (ChannelSampleAddress[channel] >> 1) + ChannelSamplePosition[channel]);
             mix16Mto32M ( FracCounter, SampleAddress, -(counter << 2) );
            }
        }
     else   // stereo
        {
         VolumeLeft = ( ChannelVolumeLeft[channel] * GlobalVolume + 128 ) >> 8;
         VolumeRight = ( ChannelVolumeRight[channel] * GlobalVolume + 128 ) >> 8;

         BlockAddress = (unsigned long)MixerBlock + (MixPosition << 3) + (counter << 3);

         FracCounter = (unsigned long)ChannelSampleFraction[channel] * 65536;

         if ( ChannelSampleBits[channel] == 8 )
            {
             VolLeftTable = (unsigned long)( Voltable8 + ((unsigned long)VolumeLeft << 10 ) );
             VolRightTable = (unsigned long)( Voltable8 + ((unsigned long)VolumeRight << 10 ) );
             setup8Mto32S ( VolLeftTable, VolRightTable, DeltaSamplePosition[channel], DeltaSampleFraction[channel], BlockAddress );
             SampleAddress = (unsigned long)(ChannelSampleAddress[channel] + ChannelSamplePosition[channel]);
             mix8Mto32S ( FracCounter, SampleAddress, -(counter << 3) );
            }
         else   // 16bit sample
            {
             setup16Mto32S ( VolumeLeft, VolumeRight, DeltaSamplePosition[channel], DeltaSampleFraction[channel], BlockAddress );
             SampleAddress = (unsigned long)( (ChannelSampleAddress[channel] >> 1) + ChannelSamplePosition[channel]);
             mix16Mto32S ( FracCounter, SampleAddress, -(counter << 3) );
            }
        }  // end stereo
    }  // end if silence
}
1B5C                          L$120:
1B5C    5D                        pop       ebp
1B5D    5F                        pop       edi
1B5E    5E                        pop       esi
1B5F    59                        pop       ecx
1B60    C3                        ret       
1B61                          L$121:
1B61    A1 00 00 00 00            mov       eax,long unsigned near void near Mix32Channel( long unsigned, long unsigned, long unsigned )::.0::Volume

1B66    89 CA                     mov       edx,ecx
1B68    8B 9F 00 00 00 00         mov       ebx,long near DeltaSampleFraction[][edi]
1B6E    8B 8F 00 00 00 00         mov       ecx,long near DeltaSamplePosition[][edi]
1B74    E8 00 00 00 00            call      setup16Mto32M_
1B79    8B 0D 00 00 00 00         mov       ecx,long unsigned near void near Mix32Channel( long unsigned, long unsigned, long unsigned )::.0::FracCounter

1B7F    8B 97 00 00 00 00         mov       edx,long unsigned near ChannelSampleAddress[][edi]
1B85    8B 87 00 00 00 00         mov       eax,long unsigned near ChannelSamplePosition[][edi]
1B8B    D1 EA                     shr       edx,0x00000001

1B8D    89 F7                     mov       edi,esi
1B8F    01 C2                     add       edx,eax
1B91    F7 DF                     neg       edi
1B93    89 D6                     mov       esi,edx
1B95    89 15 00 00 00 00         mov       long unsigned near void near Mix32Channel( long unsigned, long unsigned, long unsigned )::.0::SampleAddress,edx
1B9B    E8 00 00 00 00            call      mix16Mto32M_
1BA0    5D                        pop       ebp
1BA1    5F                        pop       edi
1BA2    5E                        pop       esi
1BA3    59                        pop       ecx
1BA4    C3                        ret       

1BA5                          L$122:
1BA5    8B 2D 00 00 00 00         mov       ebp,long unsigned near GlobalVolume

1BAB    8B B7 00 00 00 00         mov       esi,long unsigned near ChannelVolumeLeft[][edi]
1BB1    0F AF F5                  imul      esi,ebp
1BB4    81 C6 80 00 00 00         add       esi,0x00000080
1BBA    C1 EE 08                  shr       esi,0x00000008
1BBD    89 35 00 00 00 00         mov       long unsigned near void near Mix32Channel( long unsigned, long unsigned, long unsigned )::.0::VolumeLeft,esi

1BC3    8B B7 00 00 00 00         mov       esi,long unsigned near ChannelVolumeRight[][edi]
1BC9    0F AF F5                  imul      esi,ebp

1BCC    C1 E1 03                  shl       ecx,0x00000003
1BCF    81 C6 80 00 00 00         add       esi,0x00000080

1BD5    8A 80 00 00 00 00         mov       al,char unsigned near ChannelSampleBits[][eax]
1BDB    C1 EE 08                  shr       esi,0x00000008
1BDE    8D 2C D5 00 00 00 00      lea       ebp,[edx*8]
1BE5    89 35 00 00 00 00         mov       long unsigned near void near Mix32Channel( long unsigned, long unsigned, long unsigned )::.0::VolumeRight,esi
1BEB    8B 35 00 00 00 00         mov       esi,char near * near MixerBlock

1BF1    8B 97 00 00 00 00         mov       edx,long unsigned near ChannelSampleFraction[][edi]
1BF7    01 F1                     add       ecx,esi
1BF9    C1 E2 10                  shl       edx,0x00000010
1BFC    01 E9                     add       ecx,ebp
1BFE    89 15 00 00 00 00         mov       long unsigned near void near Mix32Channel( long unsigned, long unsigned, long unsigned )::.0::FracCounter,edx
1C04    89 0D 00 00 00 00         mov       long unsigned near void near Mix32Channel( long unsigned, long unsigned, long unsigned )::.0::BlockAddress,ecx
1C0A    25 FF 00 00 00            and       eax,0x000000ff
1C0F    83 F8 08                  cmp       eax,0x00000008
1C12    75 6E                     jne       L$123

1C14    8B 15 00 00 00 00         mov       edx,long unsigned near void near Mix32Channel( long unsigned, long unsigned, long unsigned )::.0::VolumeLeft
1C1A    A1 00 00 00 00            mov       eax,char near * near Voltable8
1C1F    C1 E2 0A                  shl       edx,0x0000000a
1C22    8D 0C 10                  lea       ecx,[eax+edx]

1C25    8B 15 00 00 00 00         mov       edx,long unsigned near void near Mix32Channel( long unsigned, long unsigned, long unsigned )::.0::VolumeRight

1C2B    8B 35 00 00 00 00         mov       esi,long unsigned near void near Mix32Channel( long unsigned, long unsigned, long unsigned )::.0::BlockAddress
1C31    C1 E2 0A                  shl       edx,0x0000000a
1C34    89 0D 00 00 00 00         mov       long unsigned near void near Mix32Channel( long unsigned, long unsigned, long unsigned )::.0::VolLeftTable,ecx
1C3A    01 D0                     add       eax,edx
1C3C    8B 8F 00 00 00 00         mov       ecx,long near DeltaSampleFraction[][edi]
1C42    A3 00 00 00 00            mov       long unsigned near void near Mix32Channel( long unsigned, long unsigned, long unsigned )::.0::VolRightTable,eax
1C47    89 C3                     mov       ebx,eax
1C49    8B 97 00 00 00 00         mov       edx,long near DeltaSamplePosition[][edi]
1C4F    A1 00 00 00 00            mov       eax,long unsigned near void near Mix32Channel( long unsigned, long unsigned, long unsigned )::.0::VolLeftTable
1C54    E8 00 00 00 00            call      setup8Mto32S_
1C59    8B 0D 00 00 00 00         mov       ecx,long unsigned near void near Mix32Channel( long unsigned, long unsigned, long unsigned )::.0::FracCounter

1C5F    8B 87 00 00 00 00         mov       eax,long unsigned near ChannelSampleAddress[][edi]
1C65    8B 97 00 00 00 00         mov       edx,long unsigned near ChannelSamplePosition[][edi]

1C6B    89 EF                     mov       edi,ebp
1C6D    01 D0                     add       eax,edx
1C6F    F7 DF                     neg       edi
1C71    89 C6                     mov       esi,eax
1C73    A3 00 00 00 00            mov       long unsigned near void near Mix32Channel( long unsigned, long unsigned, long unsigned )::.0::SampleAddress,eax
1C78    E8 00 00 00 00            call      mix8Mto32S_
1C7D    5D                        pop       ebp
1C7E    5F                        pop       edi
1C7F    5E                        pop       esi
1C80    59                        pop       ecx
1C81    C3                        ret       

1C82                          L$123:
1C82    8B 1D 00 00 00 00         mov       ebx,long unsigned near void near Mix32Channel( long unsigned, long unsigned, long unsigned )::.0::VolumeRight
1C88    A1 00 00 00 00            mov       eax,long unsigned near void near Mix32Channel( long unsigned, long unsigned, long unsigned )::.0::VolumeLeft

1C8D    89 CE                     mov       esi,ecx
1C8F    8B 97 00 00 00 00         mov       edx,long near DeltaSamplePosition[][edi]
1C95    8B 8F 00 00 00 00         mov       ecx,long near DeltaSampleFraction[][edi]
1C9B    E8 00 00 00 00            call      setup16Mto32S_
1CA0    8B 0D 00 00 00 00         mov       ecx,long unsigned near void near Mix32Channel( long unsigned, long unsigned, long unsigned )::.0::FracCounter

1CA6    8B 97 00 00 00 00         mov       edx,long unsigned near ChannelSampleAddress[][edi]
1CAC    8B 87 00 00 00 00         mov       eax,long unsigned near ChannelSamplePosition[][edi]
1CB2    D1 EA                     shr       edx,0x00000001

1CB4    89 EF                     mov       edi,ebp
1CB6    01 C2                     add       edx,eax
1CB8    F7 DF                     neg       edi
1CBA    89 D6                     mov       esi,edx
1CBC    89 15 00 00 00 00         mov       long unsigned near void near Mix32Channel( long unsigned, long unsigned, long unsigned )::.0::SampleAddress,edx
1CC2    E8 00 00 00 00            call      mix16Mto32S_
1CC7    5D                        pop       ebp
1CC8    5F                        pop       edi
1CC9    5E                        pop       esi
1CCA    59                        pop       ecx
1CCB    C3                        ret       



static void Mix32IChannel ( unsigned long channel, unsigned long counter, unsigned long MixPosition )
1CCC                          void near Mix32IChannel( long unsigned, long unsigned, long unsigned ):
1CCC    51                        push      ecx
1CCD    56                        push      esi
1CCE    57                        push      edi
1CCF    55                        push      ebp
1CD0    89 DE                     mov       esi,ebx

{
 static unsigned long Volume, VolumeLeft, VolumeRight;
 static unsigned long VolTable;
 static unsigned long FracCounter, SampleAddress;
 static unsigned long BlockAddress;

 if ( counter == 0 )  return;
1CD2    85 D2                     test      edx,edx
1CD4    0F 84 B2 00 00 00         je        L$124


 Volume = ( ChannelVolume[channel] * GlobalVolume + 128 ) >> 8;
1CDA    8D 3C 85 00 00 00 00      lea       edi,[eax*4]
1CE1    8B 1D 00 00 00 00         mov       ebx,long unsigned near GlobalVolume
1CE7    8B 8F 00 00 00 00         mov       ecx,long unsigned near ChannelVolume[][edi]
1CED    0F AF CB                  imul      ecx,ebx
1CF0    81 C1 80 00 00 00         add       ecx,0x00000080
1CF6    C1 E9 08                  shr       ecx,0x00000008
1CF9    89 0D 00 00 00 00         mov       long unsigned near void near Mix32IChannel( long unsigned, long unsigned, long unsigned )::.0::Volume,ecx


 if ( Volume != 0 )
1CFF    85 C9                     test      ecx,ecx
1D01    0F 84 85 00 00 00         je        L$124

    {
     if ( flag_stereo == 0 )    // mono sample
1D07    31 C9                     xor       ecx,ecx
1D09    8A 0D 00 00 00 00         mov       cl,char unsigned near flag_stereo
1D0F    85 C9                     test      ecx,ecx
1D11    0F 85 BD 00 00 00         jne       L$126
1D17    8B 0D 00 00 00 00         mov       ecx,char near * near MixerBlock

        {
         BlockAddress = (unsigned long)MixerBlock + (MixPosition << 2) + (counter << 2);
1D1D    C1 E6 02                  shl       esi,0x00000002
1D20    01 F1                     add       ecx,esi
1D22    8D 34 95 00 00 00 00      lea       esi,[edx*4]


         FracCounter = (unsigned long)ChannelSampleFraction[channel] * 65536;

         if ( ChannelSampleBits[channel] == 8 )
1D29    8A 80 00 00 00 00         mov       al,char unsigned near ChannelSampleBits[][eax]

1D2F    8B 97 00 00 00 00         mov       edx,long unsigned near ChannelSampleFraction[][edi]
1D35    01 F1                     add       ecx,esi
1D37    C1 E2 10                  shl       edx,0x00000010
1D3A    89 0D 00 00 00 00         mov       long unsigned near void near Mix32IChannel( long unsigned, long unsigned, long unsigned )::.0::BlockAddress,ecx
1D40    89 15 00 00 00 00         mov       long unsigned near void near Mix32IChannel( long unsigned, long unsigned, long unsigned )::.0::FracCounter,edx
1D46    25 FF 00 00 00            and       eax,0x000000ff
1D4B    83 F8 08                  cmp       eax,0x00000008
1D4E    75 41                     jne       L$125
1D50    A1 00 00 00 00            mov       eax,long unsigned near void near Mix32IChannel( long unsigned, long unsigned, long unsigned )::.0::Volume

            {
             setup8MIto32M ( Volume, DeltaSamplePosition[channel], DeltaSampleFraction[channel], BlockAddress );
1D55    89 CA                     mov       edx,ecx
1D57    8B 9F 00 00 00 00         mov       ebx,long near DeltaSampleFraction[][edi]
1D5D    8B 8F 00 00 00 00         mov       ecx,long near DeltaSamplePosition[][edi]
1D63    E8 00 00 00 00            call      setup8MIto32M_
1D68    8B 0D 00 00 00 00         mov       ecx,long unsigned near void near Mix32IChannel( long unsigned, long unsigned, long unsigned )::.0::FracCounter

             SampleAddress = (unsigned long)(ChannelSampleAddress[channel] + ChannelSamplePosition[channel]);
1D6E    8B 87 00 00 00 00         mov       eax,long unsigned near ChannelSampleAddress[][edi]
1D74    8B AF 00 00 00 00         mov       ebp,long unsigned near ChannelSamplePosition[][edi]

             mix8MIto32M ( FracCounter, SampleAddress, -(counter << 2) );
1D7A    89 F7                     mov       edi,esi
1D7C    01 E8                     add       eax,ebp
1D7E    F7 DF                     neg       edi
1D80    89 C6                     mov       esi,eax
1D82    A3 00 00 00 00            mov       long unsigned near void near Mix32IChannel( long unsigned, long unsigned, long unsigned )::.0::SampleAddress,eax
1D87    E8 00 00 00 00            call      mix8MIto32M_

            }
         else    // 16bit sample
            {
             setup16MIto32M ( Volume, DeltaSamplePosition[channel], DeltaSampleFraction[channel], BlockAddress );
             SampleAddress = (unsigned long)( (ChannelSampleAddress[channel] >> 1) + ChannelSamplePosition[channel]);
             mix16MIto32M ( FracCounter, SampleAddress, -(counter << 2) );
            }
        }
     else   // stereo
        {
         VolumeLeft = ( ChannelVolumeLeft[channel] * GlobalVolume + 128 ) >> 8;
         VolumeRight = ( ChannelVolumeRight[channel] * GlobalVolume + 128 ) >> 8;

         BlockAddress = (unsigned long)MixerBlock + (MixPosition << 3) + (counter << 3);

         FracCounter = (unsigned long)ChannelSampleFraction[channel] * 65536;

         if ( ChannelSampleBits[channel] == 8 )  // 8bit sample
            {
             setup8MIto32S ( VolumeLeft, VolumeRight, DeltaSamplePosition[channel], DeltaSampleFraction[channel], BlockAddress );
             SampleAddress = (unsigned long)(ChannelSampleAddress[channel] + ChannelSamplePosition[channel]);
             mix8MIto32S ( FracCounter, SampleAddress, -(counter << 3) );
            }
         else   // 16bit sample
            {
             setup16MIto32S ( VolumeLeft, VolumeRight, DeltaSamplePosition[channel], DeltaSampleFraction[channel], BlockAddress );
             SampleAddress = (unsigned long)( (ChannelSampleAddress[channel] >> 1) + ChannelSamplePosition[channel]);
             mix16MIto32S ( FracCounter, SampleAddress, -(counter << 3) );
            }
        } // end stereo
    }  // end if silence
}
1D8C                          L$124:
1D8C    5D                        pop       ebp
1D8D    5F                        pop       edi
1D8E    5E                        pop       esi
1D8F    59                        pop       ecx
1D90    C3                        ret       
1D91                          L$125:
1D91    A1 00 00 00 00            mov       eax,long unsigned near void near Mix32IChannel( long unsigned, long unsigned, long unsigned )::.0::Volume

1D96    89 CA                     mov       edx,ecx
1D98    8B 9F 00 00 00 00         mov       ebx,long near DeltaSampleFraction[][edi]
1D9E    8B 8F 00 00 00 00         mov       ecx,long near DeltaSamplePosition[][edi]
1DA4    E8 00 00 00 00            call      setup16MIto32M_
1DA9    8B 0D 00 00 00 00         mov       ecx,long unsigned near void near Mix32IChannel( long unsigned, long unsigned, long unsigned )::.0::FracCounter

1DAF    8B 87 00 00 00 00         mov       eax,long unsigned near ChannelSampleAddress[][edi]
1DB5    8B 97 00 00 00 00         mov       edx,long unsigned near ChannelSamplePosition[][edi]
1DBB    D1 E8                     shr       eax,0x00000001

1DBD    89 F7                     mov       edi,esi
1DBF    01 D0                     add       eax,edx
1DC1    F7 DF                     neg       edi
1DC3    89 C6                     mov       esi,eax
1DC5    A3 00 00 00 00            mov       long unsigned near void near Mix32IChannel( long unsigned, long unsigned, long unsigned )::.0::SampleAddress,eax
1DCA    E8 00 00 00 00            call      mix16MIto32M_
1DCF    5D                        pop       ebp
1DD0    5F                        pop       edi
1DD1    5E                        pop       esi
1DD2    59                        pop       ecx
1DD3    C3                        ret       

1DD4                          L$126:
1DD4    8B 8F 00 00 00 00         mov       ecx,long unsigned near ChannelVolumeLeft[][edi]
1DDA    0F AF CB                  imul      ecx,ebx
1DDD    81 C1 80 00 00 00         add       ecx,0x00000080
1DE3    C1 E9 08                  shr       ecx,0x00000008
1DE6    89 0D 00 00 00 00         mov       long unsigned near void near Mix32IChannel( long unsigned, long unsigned, long unsigned )::.0::VolumeLeft,ecx

1DEC    8B 8F 00 00 00 00         mov       ecx,long unsigned near ChannelVolumeRight[][edi]
1DF2    0F AF CB                  imul      ecx,ebx

1DF5    C1 E6 03                  shl       esi,0x00000003
1DF8    81 C1 80 00 00 00         add       ecx,0x00000080
1DFE    8D 2C D5 00 00 00 00      lea       ebp,[edx*8]
1E05    C1 E9 08                  shr       ecx,0x00000008

1E08    8A 80 00 00 00 00         mov       al,char unsigned near ChannelSampleBits[][eax]
1E0E    89 0D 00 00 00 00         mov       long unsigned near void near Mix32IChannel( long unsigned, long unsigned, long unsigned )::.0::VolumeRight,ecx
1E14    8B 0D 00 00 00 00         mov       ecx,char near * near MixerBlock

1E1A    8B 97 00 00 00 00         mov       edx,long unsigned near ChannelSampleFraction[][edi]
1E20    01 CE                     add       esi,ecx
1E22    C1 E2 10                  shl       edx,0x00000010
1E25    01 EE                     add       esi,ebp
1E27    89 15 00 00 00 00         mov       long unsigned near void near Mix32IChannel( long unsigned, long unsigned, long unsigned )::.0::FracCounter,edx
1E2D    89 35 00 00 00 00         mov       long unsigned near void near Mix32IChannel( long unsigned, long unsigned, long unsigned )::.0::BlockAddress,esi
1E33    25 FF 00 00 00            and       eax,0x000000ff
1E38    83 F8 08                  cmp       eax,0x00000008
1E3B    75 45                     jne       L$127
1E3D    8B 1D 00 00 00 00         mov       ebx,long unsigned near void near Mix32IChannel( long unsigned, long unsigned, long unsigned )::.0::VolumeRight
1E43    A1 00 00 00 00            mov       eax,long unsigned near void near Mix32IChannel( long unsigned, long unsigned, long unsigned )::.0::VolumeLeft

1E48    8B 8F 00 00 00 00         mov       ecx,long near DeltaSampleFraction[][edi]
1E4E    8B 97 00 00 00 00         mov       edx,long near DeltaSamplePosition[][edi]
1E54    E8 00 00 00 00            call      setup8MIto32S_
1E59    8B 0D 00 00 00 00         mov       ecx,long unsigned near void near Mix32IChannel( long unsigned, long unsigned, long unsigned )::.0::FracCounter

1E5F    8B 87 00 00 00 00         mov       eax,long unsigned near ChannelSampleAddress[][edi]
1E65    8B 9F 00 00 00 00         mov       ebx,long unsigned near ChannelSamplePosition[][edi]

1E6B    89 EF                     mov       edi,ebp
1E6D    01 D8                     add       eax,ebx
1E6F    F7 DF                     neg       edi
1E71    89 C6                     mov       esi,eax
1E73    A3 00 00 00 00            mov       long unsigned near void near Mix32IChannel( long unsigned, long unsigned, long unsigned )::.0::SampleAddress,eax
1E78    E8 00 00 00 00            call      mix8MIto32S_
1E7D    5D                        pop       ebp
1E7E    5F                        pop       edi
1E7F    5E                        pop       esi
1E80    59                        pop       ecx
1E81    C3                        ret       

1E82                          L$127:
1E82    8B 1D 00 00 00 00         mov       ebx,long unsigned near void near Mix32IChannel( long unsigned, long unsigned, long unsigned )::.0::VolumeRight
1E88    A1 00 00 00 00            mov       eax,long unsigned near void near Mix32IChannel( long unsigned, long unsigned, long unsigned )::.0::VolumeLeft

1E8D    8B 8F 00 00 00 00         mov       ecx,long near DeltaSampleFraction[][edi]
1E93    8B 97 00 00 00 00         mov       edx,long near DeltaSamplePosition[][edi]
1E99    E8 00 00 00 00            call      setup16MIto32S_
1E9E    8B 0D 00 00 00 00         mov       ecx,long unsigned near void near Mix32IChannel( long unsigned, long unsigned, long unsigned )::.0::FracCounter

1EA4    8B 97 00 00 00 00         mov       edx,long unsigned near ChannelSampleAddress[][edi]
1EAA    8B 87 00 00 00 00         mov       eax,long unsigned near ChannelSamplePosition[][edi]
1EB0    D1 EA                     shr       edx,0x00000001

1EB2    89 EF                     mov       edi,ebp
1EB4    01 C2                     add       edx,eax
1EB6    F7 DF                     neg       edi
1EB8    89 D6                     mov       esi,edx
1EBA    89 15 00 00 00 00         mov       long unsigned near void near Mix32IChannel( long unsigned, long unsigned, long unsigned )::.0::SampleAddress,edx
1EC0    E8 00 00 00 00            call      mix16MIto32S_
1EC5    5D                        pop       ebp
1EC6    5F                        pop       edi
1EC7    5E                        pop       esi
1EC8    59                        pop       ecx
1EC9    C3                        ret       
1ECA    8B C0                     mov       eax,eax



static void Mix32ICarry ( unsigned long channel, unsigned long Position1, unsigned long Position2, unsigned long Fraction, unsigned long MixPosition)
1ECC                          void near Mix32ICarry( long unsigned, long unsigned, long unsigned, long unsigned, long unsigned ):
1ECC    56                        push      esi
1ECD    57                        push      edi
1ECE    55                        push      ebp
1ECF    83 EC 0C                  sub       esp,0x0000000c
1ED2    89 C6                     mov       esi,eax
1ED4    89 54 24 04               mov       0x4[esp],edx
1ED8    89 DA                     mov       edx,ebx
1EDA    89 CB                     mov       ebx,ecx

{
 static unsigned long Volume, VolumeLeft, VolumeRight;
 static unsigned long SampleAddress1, SampleAddress2;
 static   signed long IntSample, Sample1, Sample2;
 static unsigned long BlockAddress;

// return;
 Volume = ( ChannelVolume[channel] * GlobalVolume + 128 ) / 256;
1EDC    8D 3C 85 00 00 00 00      lea       edi,[eax*4]
1EE3    8B 0D 00 00 00 00         mov       ecx,long unsigned near GlobalVolume
1EE9    8B 87 00 00 00 00         mov       eax,long unsigned near ChannelVolume[][edi]
1EEF    0F AF C1                  imul      eax,ecx
1EF2    05 80 00 00 00            add       eax,0x00000080
1EF7    C1 E8 08                  shr       eax,0x00000008
1EFA    A3 00 00 00 00            mov       long unsigned near void near Mix32ICarry( long unsigned, long unsigned, long unsigned, long unsign::.0::Volume,eax


 if ( Volume != 0 )
1EFF    85 C0                     test      eax,eax
1F01    0F 84 B3 00 00 00         je        L$128

    {
     SampleAddress1 = ChannelSampleAddress[channel];
     SampleAddress2 = ChannelSampleAddress[channel];

     if ( flag_stereo == 0 )    // mono sample
1F07    0F B6 2D 00 00 00 00      movzx     ebp,byte ptr char unsigned near flag_stereo

1F0E    8B 87 00 00 00 00         mov       eax,long unsigned near ChannelSampleAddress[][edi]
1F14    89 2C 24                  mov       [esp],ebp
1F17    8D 0C 10                  lea       ecx,[eax+edx]
1F1A    8B 6C 24 04               mov       ebp,0x4[esp]
1F1E    89 4C 24 08               mov       0x8[esp],ecx
1F22    01 D2                     add       edx,edx
1F24    8B 4C 24 04               mov       ecx,0x4[esp]
1F28    01 C5                     add       ebp,eax
1F2A    01 C9                     add       ecx,ecx
1F2C    01 C2                     add       edx,eax
1F2E    01 C8                     add       eax,ecx
1F30    83 3C 24 00               cmp       dword ptr [esp],0x00000000
1F34    0F 85 03 01 00 00         jne       L$130

        {
         BlockAddress = (unsigned long)MixerBlock + (MixPosition << 2);
1F3A    8B 4C 24 1C               mov       ecx,0x1c[esp]
1F3E    8B 3D 00 00 00 00         mov       edi,char near * near MixerBlock
1F44    C1 E1 02                  shl       ecx,0x00000002


         if ( ChannelSampleBits[channel] == 8 )
1F47    0F B6 B6 00 00 00 00      movzx     esi,byte ptr char unsigned near ChannelSampleBits[][esi]
1F4E    01 CF                     add       edi,ecx
1F50    89 3D 00 00 00 00         mov       long unsigned near void near Mix32ICarry( long unsigned, long unsigned, long unsigned, long unsign::.0::BlockAddress,edi
1F56    83 FE 08                  cmp       esi,0x00000008
1F59    75 68                     jne       L$129

            {
             SampleAddress1 += Position1;
             SampleAddress2 += Position2;
1F5B    8B 44 24 08               mov       eax,0x8[esp]

             Sample1 = (signed long) (*(signed char *)SampleAddress1);
             Sample2 = (signed long) (*(signed char *)SampleAddress2);
1F5F    8B 54 24 08               mov       edx,0x8[esp]
1F63    A3 00 00 00 00            mov       long unsigned near void near Mix32ICarry( long unsigned, long unsigned, long unsigned, long unsign::.0::SampleAddress2,eax
1F68    0F BE 12                  movsx     edx,byte ptr [edx]

1F6B    0F BE 45 00               movsx     eax,byte ptr [ebp]
1F6F    89 15 00 00 00 00         mov       long near void near Mix32ICarry( long unsigned, long unsigned, long unsigned, long unsign::.0::Sample2,edx

             IntSample = (Sample2 - Sample1) * (signed long)Fraction + (Sample1 << 16);
1F75    29 C2                     sub       edx,eax
1F77    0F AF D3                  imul      edx,ebx
1F7A    A3 00 00 00 00            mov       long near void near Mix32ICarry( long unsigned, long unsigned, long unsigned, long unsign::.0::Sample1,eax
1F7F    C1 E0 10                  shl       eax,0x00000010
1F82    31 C9                     xor       ecx,ecx
1F84    01 C2                     add       edx,eax
1F86    8B 1D 00 00 00 00         mov       ebx,long unsigned near void near Mix32ICarry( long unsigned, long unsigned, long unsigned, long unsign::.0::Volume
1F8C    89 15 00 00 00 00         mov       long near void near Mix32ICarry( long unsigned, long unsigned, long unsigned, long unsign::.0::IntSample,edx


             (*(signed long *)(BlockAddress)) = (*(signed long *)(BlockAddress)) + (signed long)( (__int64)IntSample * (__int64)Volume / 256);
1F92    89 D0                     mov       eax,edx
1F94    C1 FA 1F                  sar       edx,0x0000001f

1F97    89 2D 00 00 00 00         mov       long unsigned near void near Mix32ICarry( long unsigned, long unsigned, long unsigned, long unsign::.0::SampleAddress1,ebp
1F9D    E8 00 00 00 00            call      __I8M
1FA2    BB 00 01 00 00            mov       ebx,0x00000100
1FA7    31 C9                     xor       ecx,ecx
1FA9    E8 00 00 00 00            call      __I8D
1FAE    8B 15 00 00 00 00         mov       edx,long unsigned near void near Mix32ICarry( long unsigned, long unsigned, long unsigned, long unsign::.0::BlockAddress
1FB4    8B 32                     mov       esi,[edx]
1FB6    01 F0                     add       eax,esi
1FB8    89 02                     mov       [edx],eax

            }
         else    // 16bit sample
            {
             SampleAddress1 += (Position1 << 1);
             SampleAddress2 += (Position2 << 1);
             Sample1 = (signed long) (*(signed short *)SampleAddress1);
             Sample2 = (signed long) (*(signed short *)SampleAddress2);
             IntSample = (( (__int64)(Sample2 - Sample1) * (__int64)Fraction) / 256) + (Sample1 << 8);

             (*(signed long *)(BlockAddress)) = (*(signed long *)(BlockAddress)) + (signed long)( (__int64)IntSample * (__int64)Volume / 256);
            }
        }
     else   // stereo
        {
         VolumeLeft = ( ChannelVolumeLeft[channel] * GlobalVolume + 128 ) >> 8;
         VolumeRight = ( ChannelVolumeRight[channel] * GlobalVolume + 128 ) >> 8;

         BlockAddress = (unsigned long)MixerBlock + (MixPosition << 3);

         if ( ChannelSampleBits[channel] == 8 )  // 8bit sample
            {
             SampleAddress1 += Position1;
//             printf("SampleAddress1: %u %u\n",SampleAddress1, Position1);
             SampleAddress2 += Position2;

             Sample1 = (signed long) (*(signed char *)SampleAddress1);
             Sample2 = (signed long) (*(signed char *)SampleAddress2);
             IntSample = (Sample2 - Sample1) * (signed long)Fraction + (Sample1 << 16);

             (*(signed long *)(BlockAddress+0)) = (*(signed long *)(BlockAddress+0)) + (signed long)( (__int64)IntSample * (__int64)VolumeLeft / 256);
             (*(signed long *)(BlockAddress+4)) = (*(signed long *)(BlockAddress+4)) + (signed long)( (__int64)IntSample * (__int64)VolumeRight / 256);
            }
         else   // 16bit sample
            {
             //printf("Uuups ! 16bit !\n");
             SampleAddress1 += (Position1 * 2);
             SampleAddress2 += (Position2 * 2);

             Sample1 = (signed long) (*(signed short *)SampleAddress1);
             Sample2 = (signed long) (*(signed short *)SampleAddress2);
             IntSample = ( ( (__int64)(Sample2 - Sample1) * (__int64)Fraction) / 256) + (Sample1 << 8);

             (*(signed long *)(BlockAddress+0)) = (*(signed long *)(BlockAddress+0)) + (signed long)( (__int64)IntSample * (__int64)VolumeLeft / 256);
             (*(signed long *)(BlockAddress+4)) = (*(signed long *)(BlockAddress+4)) + (signed long)( (__int64)IntSample * (__int64)VolumeRight / 256);
            }

        } // end stereo

    }  // end if silence
}
1FBA                          L$128:
1FBA    83 C4 0C                  add       esp,0x0000000c
1FBD    5D                        pop       ebp
1FBE    5F                        pop       edi
1FBF    5E                        pop       esi
1FC0    C2 04 00                  ret       0x00000004

1FC3                          L$129:
1FC3    A3 00 00 00 00            mov       long unsigned near void near Mix32ICarry( long unsigned, long unsigned, long unsigned, long unsign::.0::SampleAddress1,eax

1FC8    0F BF 30                  movsx     esi,word ptr [eax]

1FCB    0F BF 02                  movsx     eax,word ptr [edx]
1FCE    A3 00 00 00 00            mov       long near void near Mix32ICarry( long unsigned, long unsigned, long unsigned, long unsign::.0::Sample2,eax

1FD3    29 F0                     sub       eax,esi

1FD5    89 15 00 00 00 00         mov       long unsigned near void near Mix32ICarry( long unsigned, long unsigned, long unsigned, long unsign::.0::SampleAddress2,edx
1FDB    89 C2                     mov       edx,eax
1FDD    31 C9                     xor       ecx,ecx
1FDF    C1 FA 1F                  sar       edx,0x0000001f
1FE2    89 35 00 00 00 00         mov       long near void near Mix32ICarry( long unsigned, long unsigned, long unsigned, long unsign::.0::Sample1,esi
1FE8    E8 00 00 00 00            call      __I8M
1FED    BB 00 01 00 00            mov       ebx,0x00000100
1FF2    31 C9                     xor       ecx,ecx
1FF4    E8 00 00 00 00            call      __I8D
1FF9    8B 15 00 00 00 00         mov       edx,long near void near Mix32ICarry( long unsigned, long unsigned, long unsigned, long unsign::.0::Sample1
1FFF    C1 E2 08                  shl       edx,0x00000008
2002    8B 1D 00 00 00 00         mov       ebx,long unsigned near void near Mix32ICarry( long unsigned, long unsigned, long unsigned, long unsign::.0::Volume
2008    01 D0                     add       eax,edx

200A    89 C2                     mov       edx,eax
200C    31 C9                     xor       ecx,ecx
200E    C1 FA 1F                  sar       edx,0x0000001f
2011    A3 00 00 00 00            mov       long near void near Mix32ICarry( long unsigned, long unsigned, long unsigned, long unsign::.0::IntSample,eax
2016    E8 00 00 00 00            call      __I8M
201B    BB 00 01 00 00            mov       ebx,0x00000100
2020    31 C9                     xor       ecx,ecx
2022    E8 00 00 00 00            call      __I8D
2027    89 C2                     mov       edx,eax
2029    A1 00 00 00 00            mov       eax,long unsigned near void near Mix32ICarry( long unsigned, long unsigned, long unsigned, long unsign::.0::BlockAddress
202E    8B 18                     mov       ebx,[eax]
2030    01 DA                     add       edx,ebx
2032    89 10                     mov       [eax],edx
2034    83 C4 0C                  add       esp,0x0000000c
2037    5D                        pop       ebp
2038    5F                        pop       edi
2039    5E                        pop       esi
203A    C2 04 00                  ret       0x00000004

203D                          L$130:
203D    8B 8F 00 00 00 00         mov       ecx,long unsigned near ChannelVolumeLeft[][edi]
2043    0F AF 0D 00 00 00 00      imul      ecx,long unsigned near GlobalVolume
204A    81 C1 80 00 00 00         add       ecx,0x00000080
2050    C1 E9 08                  shr       ecx,0x00000008

2053    8B BF 00 00 00 00         mov       edi,long unsigned near ChannelVolumeRight[][edi]
2059    89 0D 00 00 00 00         mov       long unsigned near void near Mix32ICarry( long unsigned, long unsigned, long unsigned, long unsign::.0::VolumeLeft,ecx
205F    0F AF 3D 00 00 00 00      imul      edi,long unsigned near GlobalVolume
2066    81 C7 80 00 00 00         add       edi,0x00000080

206C    8B 4C 24 1C               mov       ecx,0x1c[esp]
2070    C1 EF 08                  shr       edi,0x00000008
2073    C1 E1 03                  shl       ecx,0x00000003
2076    89 3D 00 00 00 00         mov       long unsigned near void near Mix32ICarry( long unsigned, long unsigned, long unsigned, long unsign::.0::VolumeRight,edi
207C    8B 3D 00 00 00 00         mov       edi,char near * near MixerBlock

2082    0F B6 B6 00 00 00 00      movzx     esi,byte ptr char unsigned near ChannelSampleBits[][esi]
2089    01 CF                     add       edi,ecx
208B    89 3D 00 00 00 00         mov       long unsigned near void near Mix32ICarry( long unsigned, long unsigned, long unsigned, long unsign::.0::BlockAddress,edi
2091    83 FE 08                  cmp       esi,0x00000008
2094    0F 85 93 00 00 00         jne       L$131

209A    8B 44 24 08               mov       eax,0x8[esp]

209E    8B 54 24 08               mov       edx,0x8[esp]
20A2    A3 00 00 00 00            mov       long unsigned near void near Mix32ICarry( long unsigned, long unsigned, long unsigned, long unsign::.0::SampleAddress2,eax
20A7    0F BE 12                  movsx     edx,byte ptr [edx]

20AA    0F BE 45 00               movsx     eax,byte ptr [ebp]
20AE    89 15 00 00 00 00         mov       long near void near Mix32ICarry( long unsigned, long unsigned, long unsigned, long unsign::.0::Sample2,edx

20B4    29 C2                     sub       edx,eax
20B6    0F AF D3                  imul      edx,ebx

20B9    89 2D 00 00 00 00         mov       long unsigned near void near Mix32ICarry( long unsigned, long unsigned, long unsigned, long unsign::.0::SampleAddress1,ebp
20BF    A3 00 00 00 00            mov       long near void near Mix32ICarry( long unsigned, long unsigned, long unsigned, long unsign::.0::Sample1,eax
20C4    C1 E0 10                  shl       eax,0x00000010
20C7    31 C9                     xor       ecx,ecx
20C9    01 C2                     add       edx,eax
20CB    8B 1D 00 00 00 00         mov       ebx,long unsigned near void near Mix32ICarry( long unsigned, long unsigned, long unsigned, long unsign::.0::VolumeLeft
20D1    89 15 00 00 00 00         mov       long near void near Mix32ICarry( long unsigned, long unsigned, long unsigned, long unsign::.0::IntSample,edx
20D7    89 D5                     mov       ebp,edx

20D9    89 D6                     mov       esi,edx
20DB    C1 FD 1F                  sar       ebp,0x0000001f
20DE    89 D0                     mov       eax,edx
20E0    89 EA                     mov       edx,ebp
20E2    E8 00 00 00 00            call      __I8M
20E7    BB 00 01 00 00            mov       ebx,0x00000100
20EC    31 C9                     xor       ecx,ecx
20EE    E8 00 00 00 00            call      __I8D
20F3    8B 3D 00 00 00 00         mov       edi,long unsigned near void near Mix32ICarry( long unsigned, long unsigned, long unsigned, long unsign::.0::BlockAddress

20F9    8B 1D 00 00 00 00         mov       ebx,long unsigned near void near Mix32ICarry( long unsigned, long unsigned, long unsigned, long unsign::.0::VolumeRight
20FF    8B 17                     mov       edx,[edi]
2101    31 C9                     xor       ecx,ecx
2103    01 D0                     add       eax,edx
2105    89 EA                     mov       edx,ebp
2107    89 07                     mov       [edi],eax
2109    89 F0                     mov       eax,esi
210B    E8 00 00 00 00            call      __I8M
2110    BB 00 01 00 00            mov       ebx,0x00000100
2115    31 C9                     xor       ecx,ecx
2117    E8 00 00 00 00            call      __I8D
211C    8B 4F 04                  mov       ecx,0x4[edi]
211F    01 C8                     add       eax,ecx
2121    89 47 04                  mov       0x4[edi],eax
2124    83 C4 0C                  add       esp,0x0000000c
2127    5D                        pop       ebp
2128    5F                        pop       edi
2129    5E                        pop       esi
212A    C2 04 00                  ret       0x00000004

212D                          L$131:
212D    A3 00 00 00 00            mov       long unsigned near void near Mix32ICarry( long unsigned, long unsigned, long unsigned, long unsign::.0::SampleAddress1,eax

2132    0F BF 30                  movsx     esi,word ptr [eax]

2135    0F BF 02                  movsx     eax,word ptr [edx]
2138    A3 00 00 00 00            mov       long near void near Mix32ICarry( long unsigned, long unsigned, long unsigned, long unsign::.0::Sample2,eax

213D    29 F0                     sub       eax,esi

213F    89 15 00 00 00 00         mov       long unsigned near void near Mix32ICarry( long unsigned, long unsigned, long unsigned, long unsign::.0::SampleAddress2,edx
2145    89 C2                     mov       edx,eax
2147    31 C9                     xor       ecx,ecx
2149    C1 FA 1F                  sar       edx,0x0000001f
214C    89 35 00 00 00 00         mov       long near void near Mix32ICarry( long unsigned, long unsigned, long unsigned, long unsign::.0::Sample1,esi
2152    E8 00 00 00 00            call      __I8M
2157    BB 00 01 00 00            mov       ebx,0x00000100
215C    31 C9                     xor       ecx,ecx
215E    E8 00 00 00 00            call      __I8D
2163    8B 35 00 00 00 00         mov       esi,long near void near Mix32ICarry( long unsigned, long unsigned, long unsigned, long unsign::.0::Sample1
2169    C1 E6 08                  shl       esi,0x00000008
216C    8B 1D 00 00 00 00         mov       ebx,long unsigned near void near Mix32ICarry( long unsigned, long unsigned, long unsigned, long unsign::.0::VolumeLeft
2172    01 C6                     add       esi,eax

2174    89 F5                     mov       ebp,esi
2176    31 C9                     xor       ecx,ecx
2178    C1 FD 1F                  sar       ebp,0x0000001f
217B    89 F0                     mov       eax,esi
217D    89 EA                     mov       edx,ebp
217F    89 35 00 00 00 00         mov       long near void near Mix32ICarry( long unsigned, long unsigned, long unsigned, long unsign::.0::IntSample,esi
2185    E8 00 00 00 00            call      __I8M
218A    BB 00 01 00 00            mov       ebx,0x00000100
218F    31 C9                     xor       ecx,ecx
2191    E8 00 00 00 00            call      __I8D
2196    8B 3D 00 00 00 00         mov       edi,long unsigned near void near Mix32ICarry( long unsigned, long unsigned, long unsigned, long unsign::.0::BlockAddress
219C    89 EA                     mov       edx,ebp
219E    8B 1F                     mov       ebx,[edi]
21A0    31 C9                     xor       ecx,ecx
21A2    01 D8                     add       eax,ebx

21A4    8B 1D 00 00 00 00         mov       ebx,long unsigned near void near Mix32ICarry( long unsigned, long unsigned, long unsigned, long unsign::.0::VolumeRight
21AA    89 07                     mov       [edi],eax
21AC    89 F0                     mov       eax,esi
21AE    E8 00 00 00 00            call      __I8M
21B3    BB 00 01 00 00            mov       ebx,0x00000100
21B8    31 C9                     xor       ecx,ecx
21BA    E8 00 00 00 00            call      __I8D
21BF    8B 77 04                  mov       esi,0x4[edi]
21C2    01 F0                     add       eax,esi
21C4    89 47 04                  mov       0x4[edi],eax
21C7    83 C4 0C                  add       esp,0x0000000c
21CA    5D                        pop       ebp
21CB    5F                        pop       edi
21CC    5E                        pop       esi
21CD    C2 04 00                  ret       0x00000004

Routine Size: 6604 bytes,    Routine Base: _TEXT + 0804

No disassembly errors

Segment: CONST BYTE USE32 0000004C bytes
0000                          L$132:
0000    52 75 6E 6E 69 6E 67 20 25 32 69 62 69 74 20 4D Running %2ibit M
0010    69 78 65 72 20 77 69 74 68 00                   ixer with.
001A                          L$133:
001A    73 6F 66 74 00                                  soft.
001F                          L$134:
001F    68 61 72 64 00                                  hard.
0024                          L$135:
0024    00                                              .
0025                          L$136:
0025    20 6E 6F 00                                      no.
0029                          L$137:
0029    25 73 20 69 6E 74 65 72 70 6F 6C 61 74 69 6F 6E %s interpolation
0039    20 61 6E 64 20 25 73 20 63 6C 69 70 70 69 6E 67  and %s clipping
0049    0A 0A 00                                        ...


Segment: _DATA DWORD USE32 00000008 bytes
0000                          long unsigned near ChannelSeperation:
0000    00 01 00 00                                     ....
0004                          long unsigned near GlobalVolume:
0004    00 01 00 00                                     ....

Segment: _BSS PARA USE32 00004F5C bytes
0000                          long unsigned near void near resetMixer()::.0::channel:
0004                          long unsigned near long unsigned near Calc_Scaling( long unsigned )::.0::scale:
0008                          long unsigned near void near PrepareMixing()::.0::channel:
000C                          long unsigned near void near PrepareMixing()::.0::scaling:
0010                          long near void near PrepareMixing()::.0::Pan:
0014                          long unsigned near void near DoPreMixing( long unsigned )::.0::channel:
0018                          long near void near DoPreMixing( long unsigned )::.0::DeltaPosition:
001C                          long near void near DoPreMixing( long unsigned )::.0::DeltaFraction:
0020                          long unsigned near void near DoPreMixing( long unsigned )::.0::Position:
0024                          long unsigned near void near DoPreMixing( long unsigned )::.0::Fraction:
0028                          long unsigned near void near DoPreMixing( long unsigned )::.0::EndPosition:
002C                          long unsigned near void near DoPreMixing( long unsigned )::.0::EndFraction:
0030                          long unsigned near void near DoPreMixing( long unsigned )::.0::LengthPosition:
0034                          long unsigned near void near DoPreMixing( long unsigned )::.0::LengthFraction:
0038                          long unsigned near void near DoMixing( long unsigned )::.0::channel:
003C                          long unsigned near void near DoMixing( long unsigned )::.0::counter:
0040                          long unsigned near void near DoMixing( long unsigned )::.0::counter1:
0044                          long unsigned near void near DoMixing( long unsigned )::.0::counter2:
0048                          long near void near DoMixing( long unsigned )::.0::DeltaPosition:
004C                          long near void near DoMixing( long unsigned )::.0::DeltaFraction:
0050                          long unsigned near void near DoMixing( long unsigned )::.0::Position:
0054                          long unsigned near void near DoMixing( long unsigned )::.0::Fraction:
0058                          long unsigned near void near DoMixing( long unsigned )::.0::Length:
005C                          long unsigned near void near DoMixing( long unsigned )::.0::LoopBegin:
0060                          long unsigned near void near DoMixing( long unsigned )::.0::LoopEnd:
0064                          long unsigned near void near DoMixing( long unsigned )::.0::EndPosition:
0068                          long unsigned near void near DoMixing( long unsigned )::.0::EndFraction:
006C                          long unsigned near void near DoMixing( long unsigned )::.0::LengthPosition:
0070                          long unsigned near void near DoMixing( long unsigned )::.0::LengthFraction:
0074                          long unsigned near void near DoMixing( long unsigned )::.0::MixLengthRest:
0078                          long unsigned near void near DoMixing( long unsigned )::.0::MixPosition:
007C                          long unsigned near void near Mix16Channel( long unsigned, long unsigned, long unsigned )::.0::Volume:
0080                          long unsigned near void near Mix16Channel( long unsigned, long unsigned, long unsigned )::.0::VolumeLeft:
0084                          long unsigned near void near Mix16Channel( long unsigned, long unsigned, long unsigned )::.0::VolumeRight:
0088                          long unsigned near void near Mix16Channel( long unsigned, long unsigned, long unsigned )::.0::VolTable:
008C                          long unsigned near void near Mix16Channel( long unsigned, long unsigned, long unsigned )::.0::VolLeftTable:
0090                          long unsigned near void near Mix16Channel( long unsigned, long unsigned, long unsigned )::.0::VolRightTable:
0094                          long unsigned near void near Mix16Channel( long unsigned, long unsigned, long unsigned )::.0::FracCounter:
0098                          long unsigned near void near Mix16Channel( long unsigned, long unsigned, long unsigned )::.0::SampleAddress:
009C                          long unsigned near void near Mix16Channel( long unsigned, long unsigned, long unsigned )::.0::BlockAddress:
00A0                          long unsigned near void near Mix16IChannel( long unsigned, long unsigned, long unsigned )::.0::Volume:
00A4                          long unsigned near void near Mix16IChannel( long unsigned, long unsigned, long unsigned )::.0::VolumeLeft:
00A8                          long unsigned near void near Mix16IChannel( long unsigned, long unsigned, long unsigned )::.0::VolumeRight:
00AC                          long unsigned near void near Mix16IChannel( long unsigned, long unsigned, long unsigned )::.0::VolTable:
00B0                          long unsigned near void near Mix16IChannel( long unsigned, long unsigned, long unsigned )::.0::FracCounter:
00B4                          long unsigned near void near Mix16IChannel( long unsigned, long unsigned, long unsigned )::.0::SampleAddress:
00B8                          long unsigned near void near Mix16IChannel( long unsigned, long unsigned, long unsigned )::.0::BlockAddress:
00BC                          long unsigned near void near Mix16ICarry( long unsigned, long unsigned, long unsigned, long unsign::.0::Volume:
00C0                          long unsigned near void near Mix16ICarry( long unsigned, long unsigned, long unsigned, long unsign::.0::VolumeLeft:
00C4                          long unsigned near void near Mix16ICarry( long unsigned, long unsigned, long unsigned, long unsign::.0::VolumeRight:
00C8                          long unsigned near void near Mix16ICarry( long unsigned, long unsigned, long unsigned, long unsign::.0::SampleAddress1:
00CC                          long unsigned near void near Mix16ICarry( long unsigned, long unsigned, long unsigned, long unsign::.0::SampleAddress2:
00D0                          long near void near Mix16ICarry( long unsigned, long unsigned, long unsigned, long unsign::.0::IntSample:
00D4                          long near void near Mix16ICarry( long unsigned, long unsigned, long unsigned, long unsign::.0::Sample1:
00D8                          long near void near Mix16ICarry( long unsigned, long unsigned, long unsigned, long unsign::.0::Sample2:
00DC                          long unsigned near void near Mix16ICarry( long unsigned, long unsigned, long unsigned, long unsign::.0::BlockAddress:
00E0                          long unsigned near void near Mix32Channel( long unsigned, long unsigned, long unsigned )::.0::Volume:
00E4                          long unsigned near void near Mix32Channel( long unsigned, long unsigned, long unsigned )::.0::VolumeLeft:
00E8                          long unsigned near void near Mix32Channel( long unsigned, long unsigned, long unsigned )::.0::VolumeRight:
00EC                          long unsigned near void near Mix32Channel( long unsigned, long unsigned, long unsigned )::.0::VolTable:
00F0                          long unsigned near void near Mix32Channel( long unsigned, long unsigned, long unsigned )::.0::VolLeftTable:
00F4                          long unsigned near void near Mix32Channel( long unsigned, long unsigned, long unsigned )::.0::VolRightTable:
00F8                          long unsigned near void near Mix32Channel( long unsigned, long unsigned, long unsigned )::.0::FracCounter:
00FC                          long unsigned near void near Mix32Channel( long unsigned, long unsigned, long unsigned )::.0::SampleAddress:
0100                          long unsigned near void near Mix32Channel( long unsigned, long unsigned, long unsigned )::.0::BlockAddress:
0104                          long unsigned near void near Mix32IChannel( long unsigned, long unsigned, long unsigned )::.0::Volume:
0108                          long unsigned near void near Mix32IChannel( long unsigned, long unsigned, long unsigned )::.0::VolumeLeft:
010C                          long unsigned near void near Mix32IChannel( long unsigned, long unsigned, long unsigned )::.0::VolumeRight:
0110                          long unsigned near void near Mix32IChannel( long unsigned, long unsigned, long unsigned )::.0::VolTable:
0114                          long unsigned near void near Mix32IChannel( long unsigned, long unsigned, long unsigned )::.0::FracCounter:
0118                          long unsigned near void near Mix32IChannel( long unsigned, long unsigned, long unsigned )::.0::SampleAddress:
011C                          long unsigned near void near Mix32IChannel( long unsigned, long unsigned, long unsigned )::.0::BlockAddress:
0120                          long unsigned near void near Mix32ICarry( long unsigned, long unsigned, long unsigned, long unsign::.0::Volume:
0124                          long unsigned near void near Mix32ICarry( long unsigned, long unsigned, long unsigned, long unsign::.0::VolumeLeft:
0128                          long unsigned near void near Mix32ICarry( long unsigned, long unsigned, long unsigned, long unsign::.0::VolumeRight:
012C                          long unsigned near void near Mix32ICarry( long unsigned, long unsigned, long unsigned, long unsign::.0::SampleAddress1:
0130                          long unsigned near void near Mix32ICarry( long unsigned, long unsigned, long unsigned, long unsign::.0::SampleAddress2:
0134                          long near void near Mix32ICarry( long unsigned, long unsigned, long unsigned, long unsign::.0::IntSample:
0138                          long near void near Mix32ICarry( long unsigned, long unsigned, long unsigned, long unsign::.0::Sample1:
013C                          long near void near Mix32ICarry( long unsigned, long unsigned, long unsigned, long unsign::.0::Sample2:
0140                          long unsigned near void near Mix32ICarry( long unsigned, long unsigned, long unsigned, long unsign::.0::BlockAddress:
0144                          long unsigned near MasterVolume:
0148                          long unsigned near ChannelUsed:
014C                          long unsigned near ChannelLast:
0150                          char unsigned near ChannelActiv[]:
0250                          char unsigned near ChannelFlag[]:
0350                          long unsigned near ChannelSampleNr[]:
0750                          long unsigned near ChannelVolume[]:
0B50                          long unsigned near ChannelPanning[]:
0F50                          char unsigned near ChannelSampleBits[]:
1050                          char unsigned near ChannelSampleMode[]:
1150                          long unsigned near ChannelSampleAddress[]:
1550                          long unsigned near ChannelSampleLength[]:
1950                          char unsigned near ChannelLoopMode[]:
1A50                          long unsigned near ChannelLoopBegin[]:
1E50                          long unsigned near ChannelLoopEnd[]:
2250                          long unsigned near ChannelSamplePosition[]:
2650                          long unsigned near ChannelSampleFraction[]:
2A50                          long unsigned near ChannelSampleFrequence[]:
2E50                          long near ChannelLastValueLeft[]:
3250                          long near ChannelLastValueRight[]:
3650                          long unsigned near ChannelVolumeLeft[]:
3A50                          long unsigned near ChannelVolumeRight[]:
3E50                          long near DeltaSamplePosition[]:
4250                          long near DeltaSampleFraction[]:
4650                          long unsigned near NextSamplePosition[]:
4A50                          long unsigned near NextSampleFraction[]:
4E50                          char unsigned near NextChannelActiv[]:
4F50                          void (near * near MixRealChannel)( long unsigned, long unsigned, long unsigned ):
4F54                          void (near * near MixRealIChannel)( long unsigned, long unsigned, long unsigned ):
4F58                          void (near * near MixRealICarry)( long unsigned, long unsigned, long unsigned, long unsigned, long unsigned ):

BSS Size: 20316 bytes

